(dp0
S'raining'
p1
I1
sS'Savage'
p2
I1
sS'foul'
p3
I2
sS'Sugar'
p4
I1
sS'four'
p5
I5
sS'Does'
p6
I3
sS'hanging'
p7
I3
sS'comically'
p8
I1
sS'LAST'
p9
I1
sS'unanswered'
p10
I3
sS'Sewell'
p11
I1
sS'Western'
p12
I1
sS'lord'
p13
I1
sS'immature'
p14
I2
sS'Frankly'
p15
I3
sS'hearthrobs'
p16
I1
sS'Belushi'
p17
I2
sS'stabbed'
p18
I1
sS'bringing'
p19
I1
sS'Atrocious'
p20
I1
sS'prize'
p21
I1
sS'wooden'
p22
I3
sS'Bacon'
p23
I3
sS'woods'
p24
I11
sS'Overdramatic'
p25
I1
sS'vomit-pan'
p26
I1
sS'commented'
p27
I3
sS'Superbabies'
p28
I1
sS'HAPPENED'
p29
I1
sS'Terrentino'
p30
I1
sS'tired'
p31
I11
sS'existance'
p32
I1
sS'Matthew'
p33
I1
sS'second'
p34
I17
sS'errors'
p35
I1
sS'ruthless'
p36
I1
sS'cooking'
p37
I1
sS'contributed'
p38
I1
sS'fingers'
p39
I2
sS'Wrong'
p40
I1
sS'designing'
p41
I2
sS'digestible'
p42
I1
sS'kid-'
p43
I1
sS'specialist'
p44
I1
sS'hero'
p45
I8
sS'here'
p46
I26
sS'herd'
p47
I1
sS'reported'
p48
I1
sS'cart'
p49
I1
sS'hers'
p50
I1
sS'affiliated'
p51
I1
sS'dork'
p52
I1
sS'kids'
p53
I16
sS'k'
p54
I3
sS'reports'
p55
I2
sS'NOT'
p56
I22
sS'military'
p57
I4
sS'appropriately'
p58
I1
sS'Compared'
p59
I1
sS'divide'
p60
I1
sS'Frist'
p61
I1
sS'explained'
p62
I2
sS'Three'
p63
I2
sS'replace'
p64
I1
sS'brought'
p65
I8
sS'scoffed'
p66
I1
sS'"The'
p67
I2
sS'scarier'
p68
I3
sS'spoke'
p69
I1
sS'DROP'
p70
I1
sS'protagnoists'
p71
I1
sS'cannibal'
p72
I1
sS'sidebars'
p73
I1
sS'music'
p74
I16
sS'therefore'
p75
I2
sS'until'
p76
I15
sS'Christina'
p77
I2
sS'successful'
p78
I3
sS'brings'
p79
I3
sS'hurt'
p80
I5
sS'glass'
p81
I2
sS'hurl'
p82
I2
sS'90'
p83
I7
sS'hole'
p84
I2
sS'hold'
p85
I4
sS'95'
p86
I1
sS'circumstances'
p87
I3
sS'morally'
p88
I2
sS'locked'
p89
I1
sS'stairs'
p90
I2
sS'doofuses'
p91
I1
sS'Hollow'
p92
I4
sS'attitdues'
p93
I1
sS'concepts'
p94
I1
sS'ludicrosity'
p95
I1
sS'rework'
p96
I1
sS'example'
p97
I13
sS'Reality'
p98
I1
sS'Britsih'
p99
I1
sS'Harbour'
p100
I1
sS'want'
p101
I52
sS'honest'
p102
I6
sS'Akroyd'
p103
I1
sS'absolute'
p104
I9
sS'hoe'
p105
I3
sS'LL'
p106
I1
sS'feature'
p107
I3
sS'LI'
p108
I2
sS'machine'
p109
I2
sS'how'
p110
I61
sS'hot'
p111
I3
sS'machina'
p112
I1
sS'significance'
p113
I1
sS'A'
p114
I85
sS'jezzzuz'
p115
I1
sS'Bates'
p116
I1
sS'beauty'
p117
I2
sS'bangers'
p118
I1
sS'typed'
p119
I1
sS'wrong'
p120
I20
sS'Reese'
p121
I1
sS'destined'
p122
I1
sS'cerebrally'
p123
I1
sS'"live'
p124
I1
sS'types'
p125
I2
sS'effective'
p126
I3
sS'scourge'
p127
I1
sS'continuos'
p128
I1
sS'would-be'
p129
I1
sS'SHOWGIRLS'
p130
I2
sS'sickening'
p131
I3
sS'Another'
p132
I11
sS'keeps'
p133
I2
sS'democratic'
p134
I1
sS'nonsensical'
p135
I1
sS'wing'
p136
I2
sS'wind'
p137
I2
sS'bug-eyed'
p138
I1
sS'Masacure'
p139
I1
sS'TRUE'
p140
I1
sS'Gwenyth'
p141
I1
sS'His'
p142
I10
sS'fit'
p143
I4
sS'screaming'
p144
I4
sS'fix'
p145
I1
sS'rescued'
p146
I1
sS'Carreys'
p147
I1
sS'fim'
p148
I1
sS'perkiness'
p149
I1
sS'slate'
p150
I1
sS'detachment'
p151
I1
sS'effects'
p152
I30
sS'Alot'
p153
I1
sS'over-rated'
p154
I2
sS'sixteen'
p155
I1
sS'undeveloped'
p156
I2
sS'silver'
p157
I3
sS'saddened'
p158
I1
sS'represents'
p159
I3
sS'sex-toys'
p160
I1
sS'foregin'
p161
I1
sS'Shame'
p162
I1
sS'spotless'
p163
I1
sS'sixth-rate'
p164
I1
sS'series'
p165
I23
sS'Brosnan'
p166
I3
sS'Hollywood'
p167
I29
sS'whip'
p168
I2
sS'misfortune'
p169
I3
sS'Susie'
p170
I1
sS'ha'
p171
I6
sS're'
p172
I21
sS'Hercules'
p173
I1
sS'Rabbit'
p174
I1
sS'Vanity'
p175
I1
sS'Word'
p176
I1
sS'Work'
p177
I1
sS'threatened'
p178
I1
sS'faculties'
p179
I1
sS'sandra'
p180
I1
sS'knit'
p181
I1
sS'15th-century'
p182
I1
sS'thwe'
p183
I1
sS'enormous'
p184
I1
sS'diabetic'
p185
I1
sS'Chan'
p186
I2
sS'family-friendly'
p187
I2
sS'selfs'
p188
I1
sS'subtlety'
p189
I1
sS'Please'
p190
I7
sS'wast'
p191
I2
sS'wasn'
p192
I39
sS'clarity'
p193
I1
sS'sutherland'
p194
I1
sS'diaster'
p195
I1
sS'yawn-inducing'
p196
I1
sS'Sonic'
p197
I1
sS'olds'
p198
I1
sS'basketball'
p199
I3
sS'Lucy'
p200
I1
sS'needed'
p201
I10
sS'Simmons'
p202
I1
sS'listed'
p203
I1
sS'glorfied'
p204
I1
sS'legs'
p205
I1
sS'bitter'
p206
I1
sS'Shawshank'
p207
I1
sS'listen'
p208
I3
sS'canned'
p209
I1
sS'predictable'
p210
I20
sS'HOOPER'
p211
I1
sS'Daddy'
p212
I1
sS'crawl'
p213
I1
sS'Suck'
p214
I1
sS'Beautiful'
p215
I2
sS'Plummer'
p216
I1
sS'showed'
p217
I3
sS'elegant'
p218
I1
sS'whinging'
p219
I1
sS'shower'
p220
I1
sS'AWFUL'
p221
I1
sS'feeling'
p222
I9
sS'Phooey'
p223
I1
sS'acclaim'
p224
I2
sS'spectrum'
p225
I1
sS'Angela'
p226
I1
sS'corny'
p227
I8
sS'picks'
p228
I1
sS'Williams'
p229
I3
sS'Then'
p230
I9
sS'kidnap'
p231
I1
sS'calber'
p232
I1
sS'responsible'
p233
I1
sS'metallic'
p234
I1
sS'Band'
p235
I1
sS'recommended'
p236
I2
sS'causing'
p237
I1
sS'amusing'
p238
I2
sS'They'
p239
I44
sS'Unicorn'
p240
I1
sS'Russo'
p241
I1
sS'Jones'
p242
I3
sS'heart--and'
p243
I1
sS'committing'
p244
I1
sS'thrilled'
p245
I1
sS'Wish'
p246
I2
sS'mistakened'
p247
I1
sS'cinematic'
p248
I3
sS'theatres'
p249
I1
sS'VCR'
p250
I1
sS'mouth'
p251
I1
sS'letter'
p252
I1
sS'thriller'
p253
I4
sS'morality'
p254
I2
sS'Naked'
p255
I1
sS'episode'
p256
I1
sS'thrusted'
p257
I1
sS'camp'
p258
I1
sS'Grodin'
p259
I2
sS'Bullock'
p260
I1
sS'scream'
p261
I3
sS'came'
p262
I19
sS'marvel'
p263
I2
sS'saying'
p264
I19
sS'bomb'
p265
I6
sS'sexism'
p266
I2
sS'tempted'
p267
I2
sS'cheaply'
p268
I1
sS'lessons'
p269
I2
sS'parodies'
p270
I2
sS'busy'
p271
I1
sS'hi-tech'
p272
I1
sS'bust'
p273
I1
sS'bush'
p274
I1
sS'touched'
p275
I1
sS'rich'
p276
I2
sS'Clothes'
p277
I1
sS'Tricky'
p278
I1
sS'\xc3'
p279
I1
sS'psychiatric'
p280
I1
sS'reversal'
p281
I1
sS'altogether'
p282
I4
sS'X'
p283
I2
sS'Colorado'
p284
I1
sS'Dances'
p285
I1
sS'Mockingbird'
p286
I1
sS'release'
p287
I2
sS'Clearly'
p288
I1
sS'v8s'
p289
I1
sS'blew'
p290
I4
sS'disaster'
p291
I5
sS'fair'
p292
I4
sS'Dogg'
p293
I3
sS'result'
p294
I4
sS'Saruman'
p295
I2
sS'fail'
p296
I2
sS'John'
p297
I13
sS'skulls'
p298
I1
sS'Dogs'
p299
I1
sS'best'
p300
I33
sS'Bored'
p301
I2
sS'lots'
p302
I7
sS'Anti-Castro'
p303
I1
sS'score'
p304
I6
sS'conceptual'
p305
I1
sS'Cage'
p306
I1
sS'claws'
p307
I1
sS'Moriah'
p308
I1
sS'men'
p309
I10
sS'nature'
p310
I1
sS'99cents'
p311
I1
sS'WAAAAAA'
p312
I1
sS'extent'
p313
I2
sS'wth'
p314
I2
sS'carbon'
p315
I2
sS'JLo'
p316
I1
sS'suspensful'
p317
I1
sS'pity'
p318
I2
sS'met'
p319
I1
sS'country'
p320
I4
sS'adapter'
p321
I1
sS'fruity'
p322
I2
sS'Laura'
p323
I1
sS'Desdemona'
p324
I1
sS'betrayed'
p325
I1
sS'asked'
p326
I2
sS'rehash'
p327
I3
sS'irresponsible'
p328
I2
sS'2nd'
p329
I1
sS'cult'
p330
I2
sS'Closed'
p331
I1
sS'Sorry'
p332
I5
sS'fema'
p333
I1
sS'Sitting'
p334
I1
sS'cue'
p335
I1
sS'.'
p336
I4454
sS'much'
p337
I91
sS'wuld'
p338
I1
sS'superhuman'
p339
I1
sS'jackass'
p340
I1
sS'life'
p341
I53
sS'recomend'
p342
I1
sS'writting'
p343
I1
sS'ZERO'
p344
I3
sS'DeVito'
p345
I2
sS'kssing'
p346
I1
sS'child'
p347
I12
sS'worked'
p348
I4
sS'Whitnail'
p349
I1
sS'Holmes'
p350
I2
sS'unecessary'
p351
I1
sS'contemplated'
p352
I1
sS'sinise'
p353
I1
sS'Kaufman'
p354
I1
sS'Harrison'
p355
I4
sS'remembering'
p356
I1
sS'ridiculously'
p357
I2
sS'played'
p358
I12
sS'plotlines'
p359
I1
sS'LOL'
p360
I1
sS'player'
p361
I5
sS'Scariest'
p362
I1
sS'Courtney'
p363
I1
sS'shift'
p364
I1
sS'charactors'
p365
I1
sS'hokey'
p366
I2
sS'Python'
p367
I1
sS'things'
p368
I28
sS'demands'
p369
I1
sS'stolid'
p370
I1
sS'spews'
p371
I1
sS'split'
p372
I1
sS'big'
p373
I42
sS'Amelia'
p374
I1
sS'fairly'
p375
I4
sS'boiled'
p376
I1
sS'Maybe'
p377
I12
sS'qualifications'
p378
I2
sS'dimness'
p379
I1
sS'preachy'
p380
I4
sS'tuna'
p381
I1
sS'stupendous'
p382
I1
sS'Cruel'
p383
I2
sS'monkeys'
p384
I1
sS'detracted'
p385
I2
sS'nachos'
p386
I1
sS'corporate'
p387
I1
sS'luminously'
p388
I1
sS'opinions'
p389
I1
sS'Russell'
p390
I3
sS'givin'
p391
I1
sS'THAT'
p392
I1
sS'reminents'
p393
I1
sS'Destination'
p394
I1
sS'sleepy'
p395
I1
sS'financially'
p396
I1
sS'Whitaker'
p397
I1
sS'portrayed'
p398
I6
sS'previous'
p399
I4
sS'keeled'
p400
I1
sS'butchering'
p401
I1
sS'Oscar'
p402
I6
sS'ease'
p403
I1
sS'had'
p404
I114
sS'Binks'
p405
I1
sS'Spiegel'
p406
I1
sS'has'
p407
I89
sS'Apart'
p408
I2
sS'unessential'
p409
I1
sS'survival'
p410
I1
sS'possible'
p411
I8
sS'possibly'
p412
I14
sS'Emilio'
p413
I1
sS'imposed'
p414
I1
sS'shadow'
p415
I1
sS'unique'
p416
I2
sS'desire'
p417
I1
sS'psychological'
p418
I1
sS'deus'
p419
I1
sS'steps'
p420
I1
sS'Steven'
p421
I3
sS'cheesiness'
p422
I1
sS'Unwatchable'
p423
I1
sS'flonts'
p424
I1
sS'Abyss'
p425
I1
sS'right'
p426
I35
sS'old'
p427
I41
sS'crowd'
p428
I2
sS'people'
p429
I100
sS'Arquette'
p430
I1
sS'desensitize'
p431
I1
sS'Whatever'
p432
I1
sS'Between'
p433
I1
sS'Off'
p434
I1
sS'Norton'
p435
I1
sS'cultish'
p436
I1
sS'for'
p437
I386
sS'bottom'
p438
I3
sS'Baum'
p439
I1
sS'creative'
p440
I4
sS'witty'
p441
I2
sS'exposition'
p442
I1
sS'unit'
p443
I3
sS'umm'
p444
I1
sS'Gandalf'
p445
I1
sS'completly'
p446
I4
sS'Watts'
p447
I2
sS'moviedom'
p448
I2
sS'Nicholson'
p449
I5
sS'lefty'
p450
I1
sS'Bones'
p451
I4
sS'starring'
p452
I1
sS'poppies'
p453
I2
sS'losing'
p454
I2
sS'memorable'
p455
I1
sS'Think'
p456
I3
sS'valium'
p457
I1
sS'First'
p458
I14
sS'Gadzooks'
p459
I1
sS'derailed'
p460
I1
sS'Essencially'
p461
I1
sS'dollars'
p462
I3
sS'o'
p463
I4
sS'geroge'
p464
I1
sS'lacked'
p465
I3
sS'Confusing'
p466
I1
sS'slightly'
p467
I5
sS'match'
p468
I1
sS'raised'
p469
I1
sS'facility'
p470
I1
sS'soo'
p471
I3
sS'son'
p472
I6
sS'thankful'
p473
I1
sS'beings'
p474
I1
sS'magazines'
p475
I1
sS'Beatle-wannabes'
p476
I1
sS'support'
p477
I5
sS'constantly'
p478
I2
sS'tame'
p479
I1
sS'Bullworth'
p480
I1
sS'Haunted'
p481
I1
sS'greatness'
p482
I1
sS'Awful'
p483
I10
sS'tele'
p484
I1
sS'halls'
p485
I1
sS'happy'
p486
I7
sS'insurrection'
p487
I1
sS'offer'
p488
I1
sS'talents'
p489
I2
sS'Grinch'
p490
I1
sS'WILDLIFE'
p491
I1
sS'silliness'
p492
I1
sS'extremity'
p493
I1
sS'Screaming'
p494
I1
sS'inside'
p495
I1
sS'devices'
p496
I1
sS'WHY'
p497
I2
sS'azz'
p498
I1
sS'torturing'
p499
I1
sS'Tony'
p500
I1
sS'reinstitutes'
p501
I1
sS'MUSICALS'
p502
I1
sS'Sir'
p503
I1
sS'juvenile'
p504
I4
sS'shooter'
p505
I1
sS'liberal'
p506
I2
sS'achive'
p507
I1
sS'flaying'
p508
I1
sS'Josh'
p509
I3
sS'Ferell'
p510
I1
sS'hungry'
p511
I1
sS'somebody'
p512
I4
sS'Virgin'
p513
I1
sS'proves'
p514
I6
sS'exist'
p515
I3
sS'dealer'
p516
I1
sS'Wretched'
p517
I1
sS'floor'
p518
I2
sS'Track'
p519
I1
sS'actor'
p520
I29
sS'uttered'
p521
I1
sS'Possibly'
p522
I2
sS'role'
p523
I20
sS'ambitious'
p524
I1
sS'becuase'
p525
I1
sS'smell'
p526
I1
sS'roll'
p527
I3
sS'intend'
p528
I1
sS'Daytona'
p529
I1
sS'models'
p530
I3
sS'Verry'
p531
I1
sS'intent'
p532
I2
sS'smelling'
p533
I1
sS'snooze'
p534
I1
sS'anti-white'
p535
I1
sS'annointed'
p536
I1
sS'shootout'
p537
I1
sS'unentertaining'
p538
I2
sS'Charles'
p539
I1
sS'time'
p540
I143
sS'push'
p541
I3
sS'detective'
p542
I1
sS'chain'
p543
I1
sS'reviewers'
p544
I3
sS'scourging'
p545
I1
sS'crocodile'
p546
I1
sS'theaters'
p547
I3
sS'cruxifiction'
p548
I1
sS'Indiana'
p549
I2
sS'chair'
p550
I4
sS'uneven'
p551
I1
sS'Wee'
p552
I1
sS'Kicking'
p553
I1
sS'rousing'
p554
I1
sS'keifer'
p555
I1
sS'Iago'
p556
I1
sS'balled'
p557
I1
sS'atavistic'
p558
I1
sS'over-the-top'
p559
I2
sS'jerk'
p560
I1
sS'recipe'
p561
I1
sS'choice'
p562
I1
sS'Cusack'
p563
I1
sS'stays'
p564
I1
sS'exact'
p565
I3
sS'minute'
p566
I8
sS'moola'
p567
I1
sS'discovered'
p568
I1
sS'amoral'
p569
I1
sS'leave'
p570
I9
sS'solved'
p571
I1
sS'settle'
p572
I1
sS'team'
p573
I9
sS'loads'
p574
I2
sS'wastin'
p575
I1
sS'spiritual'
p576
I1
sS'FOR'
p577
I2
sS'sign'
p578
I3
sS'shirts'
p579
I1
sS'camerawork'
p580
I3
sS'current'
p581
I3
sS'fifth'
p582
I1
sS'freaks'
p583
I1
sS'falling'
p584
I8
sS'Francis'
p585
I1
sS'Lopez'
p586
I3
sS'unintentionally'
p587
I1
sS'Me'
p588
I2
sS'jury'
p589
I1
sS'honour'
p590
I1
sS'understanding'
p591
I1
sS'Woman'
p592
I1
sS'Mr'
p593
I9
sS'alone'
p594
I6
sS'along'
p595
I13
sS'Bow'
p596
I1
sS'My'
p597
I18
sS'ME'
p598
I4
sS'Hallmark'
p599
I1
sS'redemption'
p600
I1
sS'brilliant'
p601
I7
sS'title'
p602
I12
sS'funded'
p603
I2
sS'myers'
p604
I2
sS'MY'
p605
I3
sS'bearable'
p606
I1
sS'jerkiness'
p607
I2
sS'REAL'
p608
I2
sS'love'
p609
I45
sS'Sci-Fi'
p610
I4
sS'Thornton'
p611
I2
sS'prefer'
p612
I4
sS'logical'
p613
I2
sS'Enough'
p614
I4
sS'Tarntino-like'
p615
I1
sS'fake'
p616
I14
sS'working'
p617
I1
sS'positive'
p618
I3
sS'angry'
p619
I4
sS'Munson'
p620
I1
sS'Zeta-Jones'
p621
I1
sS'by'
p622
I128
sS'wood'
p623
I1
sS'opposed'
p624
I1
sS'wondering'
p625
I4
sS'films'
p626
I35
sS'Those'
p627
I2
sS'loving'
p628
I2
sS'reprise'
p629
I1
sS'visual'
p630
I1
sS'Latinos'
p631
I1
sS'everywhere'
p632
I2
sS'ceratosaur'
p633
I1
sS'Li'
p634
I2
sS'anything'
p635
I46
sS'film-'
p636
I1
sS'PERSONAL'
p637
I1
sS'originally'
p638
I1
sS'pretend'
p639
I2
sS'abortion'
p640
I2
sS'inflamed'
p641
I1
sS'believes'
p642
I3
sS'believed'
p643
I4
sS'Out'
p644
I1
sS'awesome'
p645
I6
sS'BAD'
p646
I9
sS'allowed'
p647
I5
sS'listens'
p648
I2
sS'Said'
p649
I1
sS'Who'
p650
I12
sS'thanking'
p651
I1
sS'Louis'
p652
I1
sS'Why'
p653
I36
sS'laundry'
p654
I1
sS'landmark'
p655
I2
sS'spot'
p656
I1
sS'TOBE'
p657
I1
sS'date'
p658
I3
sS'such'
p659
I56
sS'suck'
p660
I18
sS'data'
p661
I1
sS'shockingly'
p662
I1
sS'stress'
p663
I1
sS'natural'
p664
I1
sS'Needless'
p665
I1
sS'sh'
p666
I9
sS'so'
p667
I218
sS'wolves'
p668
I1
sS'f---ing'
p669
I1
sS'se'
p670
I1
sS'drunken'
p671
I1
sS'LIE'
p672
I1
sS'Affleck'
p673
I3
sS'years'
p674
I26
sS'hiring'
p675
I1
sS'tore'
p676
I1
sS'limbs'
p677
I1
sS'lackluster'
p678
I1
sS'torn'
p679
I1
sS'amazing'
p680
I7
sS'cautionary'
p681
I1
sS'attraction'
p682
I1
sS'Whitney'
p683
I1
sS'suspension'
p684
I1
sS'troubled'
p685
I1
sS'937'
p686
I1
sS'instantly'
p687
I1
sS'Craven-like'
p688
I1
sS'smarter'
p689
I3
sS'insomnia'
p690
I2
sS'feelin'
p691
I1
sS'workmanlike'
p692
I1
sS'truckload'
p693
I1
sS'didn'
p694
I98
sS'Stanley'
p695
I1
sS'sexually'
p696
I1
sS'Learned'
p697
I1
sS'disasters'
p698
I1
sS'Lucas'
p699
I3
sS'naked'
p700
I6
sS'best-acting'
p701
I1
sS'Michigan'
p702
I1
sS'contained'
p703
I1
sS'exploding'
p704
I1
sS'Joe'
p705
I1
sS'formula'
p706
I3
sS'Lliam'
p707
I1
sS'THANK'
p708
I1
sS'unoriginality'
p709
I1
sS'million'
p710
I4
sS'quite'
p711
I14
sS'disrespect'
p712
I2
sS'crazies'
p713
I1
sS'besides'
p714
I3
sS'quits'
p715
I1
sS'remainder'
p716
I1
sS'training'
p717
I1
sS'Obnoxious'
p718
I1
sS'disguised'
p719
I1
sS'dunno'
p720
I1
sS'programming'
p721
I1
sS'aboard'
p722
I1
sS'centerists'
p723
I1
sS'emotion'
p724
I2
sS'saving'
p725
I6
sS'ignored'
p726
I1
sS'spoken'
p727
I4
sS'one'
p728
I302
sS'vote'
p729
I4
sS'open'
p730
I3
sS'ripping'
p731
I1
sS'city'
p732
I4
sS'2'
p733
I54
sS'realization'
p734
I2
sS'oversimplified'
p735
I1
sS'bits'
p736
I2
sS'slasher'
p737
I4
sS'excellent'
p738
I6
sS'Patrick'
p739
I1
sS'perpetuation'
p740
I1
sS'execrable'
p741
I1
sS'Walberg'
p742
I2
sS'ridiculous'
p743
I15
sS'fooled'
p744
I1
sS'Kurt'
p745
I1
sS'boyfriend'
p746
I4
sS'ascendance'
p747
I1
sS'bored'
p748
I10
sS'iceberg'
p749
I1
sS'rival'
p750
I1
sS'whom'
p751
I1
sS'future'
p752
I3
sS'sequals'
p753
I1
sS'disasterous'
p754
I1
sS'illness'
p755
I1
sS'turned'
p756
I6
sS'argument'
p757
I1
sS'sad'
p758
I12
sS'Field'
p759
I1
sS'say'
p760
I58
sS'saw'
p761
I43
sS'sat'
p762
I7
sS'Jewish'
p763
I4
sS'downwards'
p764
I1
sS'aside'
p765
I4
sS'note'
p766
I2
sS'take'
p767
I31
sS'wanting'
p768
I6
sS'convulsive'
p769
I1
sS'ANYWAYS'
p770
I1
sS'opposite'
p771
I1
sS'knew'
p772
I12
sS'spewing'
p773
I1
sS'non-actors'
p774
I1
sS'printed'
p775
I1
sS'defication'
p776
I1
sS'pages'
p777
I1
sS'peice'
p778
I6
sS'average'
p779
I2
sS'infections'
p780
I1
sS'drive'
p781
I2
sS'butchered'
p782
I1
sS'Sheesh'
p783
I1
sS'addled'
p784
I1
sS'walking'
p785
I4
sS'opportunist'
p786
I1
sS'Sky'
p787
I1
sS'merit'
p788
I3
sS'bright'
p789
I3
sS'inconsistent'
p790
I1
sS'slow'
p791
I15
sS'romanian'
p792
I1
sS'HOWEVER'
p793
I1
sS'foward'
p794
I1
sS'tears'
p795
I1
sS'going'
p796
I55
sS'DRESSING'
p797
I1
sS'simplistic'
p798
I3
sS'Having'
p799
I1
sS'prime'
p800
I2
sS'Catwoman'
p801
I1
sS'artist'
p802
I1
sS'Jeff'
p803
I5
sS'Boycott'
p804
I1
sS'Disappointing'
p805
I1
sS'bombs'
p806
I1
sS'YES'
p807
I2
sS'where'
p808
I45
sS'YET'
p809
I1
sS'vision'
p810
I1
sS'Stood'
p811
I1
sS'hour'
p812
I15
sS'WW2'
p813
I1
sS'Ringu'
p814
I1
sS'Rings'
p815
I1
sS'Patricia'
p816
I1
sS'job-'
p817
I1
sS'WASTE'
p818
I4
sS'unscriptual'
p819
I1
sS'That'
p820
I33
sS'sideburns'
p821
I1
sS'freeuk'
p822
I1
sS'teeny'
p823
I4
sS'teens'
p824
I3
sS'Than'
p825
I1
sS'Bible'
p826
I2
sS'jobs'
p827
I1
sS'Harbor'
p828
I5
sS'screen'
p829
I24
sS'faded'
p830
I1
sS'jets'
p831
I1
sS'spark'
p832
I1
sS'puerile'
p833
I1
sS'many'
p834
I45
sS's'
p835
I406
sS'good-looking'
p836
I1
sS'expression'
p837
I1
sS'synoptic'
p838
I1
sS'twit'
p839
I1
sS'ants'
p840
I2
sS'swaring'
p841
I1
sS'DIDNT'
p842
I1
sS'considers'
p843
I1
sS'boat'
p844
I3
sS'caring'
p845
I2
sS'Pepper'
p846
I1
sS'collides'
p847
I1
sS'stretch'
p848
I1
sS'vacation'
p849
I2
sS'Winona'
p850
I2
sS'combined'
p851
I3
sS'motives'
p852
I3
sS'Princess'
p853
I1
sS'wants'
p854
I9
sS'Quills'
p855
I2
sS'Whenever'
p856
I1
sS'chan'
p857
I2
sS'thousand'
p858
I1
sS'Sucks'
p859
I2
sS'abject'
p860
I1
sS'former'
p861
I2
sS'PLOT'
p862
I1
sS'profane'
p863
I1
sS'Ouch'
p864
I1
sS'sponsered'
p865
I1
sS'situation'
p866
I2
sS'endured'
p867
I1
sS'ive'
p868
I2
sS'unlikeable'
p869
I1
sS'DID'
p870
I2
sS'mutineers'
p871
I1
sS'twists'
p872
I1
sS'dubious'
p873
I1
sS'Yu-Gi-Oh'
p874
I1
sS'Looking'
p875
I1
sS'blah'
p876
I5
sS'cut-out'
p877
I1
sS'technology'
p878
I1
sS'fame'
p879
I2
sS'scientifically'
p880
I1
sS'Blood'
p881
I1
sS'embarrased'
p882
I1
sS'breakdown'
p883
I1
sS'disastorous'
p884
I1
sS'cheeseball'
p885
I2
sS'I'
p886
I1381
sS'tracking'
p887
I1
sS'Hallie'
p888
I1
sS'pacino'
p889
I1
sS'"facts"'
p890
I1
sS'watses'
p891
I1
sS'vacant'
p892
I1
sS'Busey'
p893
I1
sS'pacing'
p894
I1
sS'costs'
p895
I10
sS'Monty'
p896
I1
sS'back-drop'
p897
I1
sS'grumpy'
p898
I1
sS'hubby'
p899
I1
sS'summer'
p900
I4
sS'morons'
p901
I2
sS'possesed'
p902
I1
sS'being'
p903
I54
sS'exaggerating'
p904
I1
sS'Bosom'
p905
I2
sS'rest'
p906
I12
sS'civic'
p907
I1
sS'Daniel'
p908
I1
sS'Missy'
p909
I1
sS'under-the-top'
p910
I1
sS'Frasier'
p911
I2
sS'occasional'
p912
I3
sS'Travolta'
p913
I6
sS'prominently'
p914
I1
sS'Andrews'
p915
I1
sS'Hitchcock'
p916
I3
sS'Jeez'
p917
I1
sS'around'
p918
I35
sS'dark'
p919
I9
sS'unedited'
p920
I1
sS'TBWP'
p921
I2
sS'traffic'
p922
I1
sS'darn'
p923
I3
sS'world'
p924
I23
sS'Example'
p925
I1
sS'dare'
p926
I1
sS'stranger'
p927
I1
sS'poo'
p928
I4
sS'clad'
p929
I1
sS'overhyped'
p930
I1
sS'Doesnt'
p931
I1
sS'claw'
p932
I1
sS'Man'
p933
I8
sS'pushy'
p934
I1
sS'equates'
p935
I2
sS'Seriously'
p936
I3
sS'brits'
p937
I1
sS'divine'
p938
I1
sS'thinks'
p939
I7
sS'whould'
p940
I1
sS'tote'
p941
I1
sS'substance'
p942
I2
sS'memories'
p943
I1
sS'badddddd'
p944
I1
sS'refer'
p945
I2
sS'biased'
p946
I1
sS'Terl'
p947
I1
sS'power'
p948
I5
sS'Ripley'
p949
I1
sS'origins'
p950
I1
sS'Pygmmalion'
p951
I2
sS'industry'
p952
I1
sS'favorite'
p953
I8
sS'meal'
p954
I1
sS'Terminator'
p955
I1
sS'neighbor'
p956
I1
sS'masterpieces'
p957
I2
sS'Message'
p958
I1
sS'Jeesus'
p959
I1
sS'sensitilities'
p960
I1
sS'burning'
p961
I1
sS'No'
p962
I37
sS'image'
p963
I3
sS'Garth'
p964
I1
sS'freaked'
p965
I1
sS'DUMB'
p966
I1
sS'moped'
p967
I1
sS'apologize'
p968
I1
sS'portrayal'
p969
I2
sS'Pakistani'
p970
I1
sS'cared'
p971
I2
sS'her'
p972
I99
sS'hes'
p973
I1
sS'hey'
p974
I3
sS'mindless'
p975
I9
sS'punished'
p976
I1
sS'bubble'
p977
I2
sS'Sabrina'
p978
I1
sS'project'
p979
I2
sS'OUTER'
p980
I1
sS'complete'
p981
I15
sS'survived'
p982
I1
sS'Over-rated'
p983
I2
sS'mindlessly'
p984
I1
sS'with'
p985
I325
sS'buying'
p986
I3
sS'abused'
p987
I1
sS'pull'
p988
I2
sS'rush'
p989
I1
sS'Lawerence'
p990
I1
sS'House'
p991
I4
sS'tripe'
p992
I9
sS'brain-dead'
p993
I2
sS'dirty'
p994
I3
sS'Close'
p995
I3
sS'politically'
p996
I1
sS'agree'
p997
I12
sS'gone'
p998
I7
sS'ohh'
p999
I1
sS'johnny'
p1000
I1
sS'gratuitous'
p1001
I5
sS'certain'
p1002
I4
sS'accents'
p1003
I5
sS'awry'
p1004
I1
sS'am'
p1005
I38
sS'al'
p1006
I2
sS'watches'
p1007
I1
sS'an'
p1008
I138
sS'How'
p1009
I29
sS'Hot'
p1010
I1
sS'at'
p1011
I212
sS'caracter'
p1012
I1
sS'watched'
p1013
I36
sS'appalling'
p1014
I1
sS'Real'
p1015
I2
sS'Read'
p1016
I3
sS'graduate'
p1017
I1
sS'tight'
p1018
I1
sS'implied'
p1019
I1
sS'Atlantic'
p1020
I1
sS'friggin'
p1021
I3
sS'incomprehensible'
p1022
I2
sS'Wide'
p1023
I2
sS'Alex'
p1024
I2
sS'forgettable'
p1025
I2
sS'slant'
p1026
I1
sS'seriousness'
p1027
I1
sS'midget'
p1028
I1
sS'gayest'
p1029
I1
sS'Clooney'
p1030
I2
sS'Alec'
p1031
I1
sS'tricky'
p1032
I1
sS'mask'
p1033
I4
sS'hello'
p1034
I1
sS'fraudulent'
p1035
I1
sS'mass'
p1036
I2
sS'sawing'
p1037
I1
sS'ubergeek'
p1038
I1
sS'original'
p1039
I36
sS'Canada'
p1040
I1
sS'sci'
p1041
I1
sS'consider'
p1042
I3
sS'caused'
p1043
I5
sS'debris'
p1044
I3
sS'Farley'
p1045
I3
sS'Romeo'
p1046
I2
sS'reasoning'
p1047
I1
sS'pornographic'
p1048
I2
sS'tv'
p1049
I4
sS'Barbara'
p1050
I1
sS'Evil'
p1051
I1
sS'spirit'
p1052
I1
sS'to'
p1053
I1123
sS'tail'
p1054
I1
sS'ritualistic'
p1055
I1
sS'Kingsley'
p1056
I1
sS'smile'
p1057
I1
sS'paying'
p1058
I3
sS'appointment'
p1059
I1
sS'Dante'
p1060
I1
sS'offal'
p1061
I1
sS'LOOK'
p1062
I1
sS'cable'
p1063
I4
sS'althought'
p1064
I1
sS'shenanigans'
p1065
I1
sS'laying'
p1066
I1
sS't3'
p1067
I1
sS'insufficiently'
p1068
I1
sS'large'
p1069
I3
sS'dinosaur'
p1070
I2
sS'sane'
p1071
I1
sS'small'
p1072
I6
sS'SKYNET'
p1073
I1
sS'Should'
p1074
I3
sS'past'
p1075
I6
sS'pass'
p1076
I5
sS'clock'
p1077
I3
sS'section'
p1078
I1
sS'scientists'
p1079
I1
sS'Lunch"'
p1080
I1
sS'contrast'
p1081
I2
sS'hasn'
p1082
I3
sS'full'
p1083
I5
sS'portrays'
p1084
I1
sS'hours'
p1085
I29
sS'portrayl'
p1086
I1
sS'Angelina'
p1087
I3
sS'civilians'
p1088
I2
sS'concluding'
p1089
I1
sS'buzzing'
p1090
I1
sS'legend'
p1091
I4
sS'Silence'
p1092
I1
sS'brutal'
p1093
I2
sS'prior'
p1094
I1
sS'pick'
p1095
I6
sS'action'
p1096
I52
sS'murdering'
p1097
I1
sS'appealling'
p1098
I1
sS'via'
p1099
I1
sS'followed'
p1100
I2
sS'Deeds'
p1101
I1
sS'cigs'
p1102
I1
sS'Pitiful'
p1103
I1
sS'subculture'
p1104
I1
sS'BigBaby'
p1105
I1
sS'Romano'
p1106
I3
sS'Romans'
p1107
I2
sS'sitter'
p1108
I1
sS'Peak'
p1109
I1
sS'6'
p1110
I5
sS'teeny-tiny'
p1111
I1
sS'Crass'
p1112
I1
sS'teen'
p1113
I6
sS'fast-forwarding'
p1114
I1
sS'door'
p1115
I1
sS'doos'
p1116
I1
sS'portrayals'
p1117
I1
sS'company'
p1118
I6
sS'videoclip'
p1119
I1
sS'Found'
p1120
I1
sS'pleasing'
p1121
I1
sS'Gods'
p1122
I3
sS'Youd'
p1123
I1
sS'resources'
p1124
I1
sS'bacause'
p1125
I1
sS'knocked'
p1126
I2
sS'male'
p1127
I5
sS'Cheesy'
p1128
I1
sS'beautiful'
p1129
I4
sS'soldeirs'
p1130
I1
sS'antagonists'
p1131
I1
sS'Molfan'
p1132
I1
sS'stated'
p1133
I2
sS'accept'
p1134
I3
sS'states'
p1135
I4
sS'WATERWORLD'
p1136
I1
sS'sense'
p1137
I26
sS'station'
p1138
I3
sS'dress'
p1139
I3
sS'Glasgow'
p1140
I1
sS'salts'
p1141
I1
sS'information'
p1142
I3
sS'hugh'
p1143
I1
sS'disturbed'
p1144
I2
sS'reattachment'
p1145
I1
sS'conceived'
p1146
I1
sS'creature'
p1147
I1
sS'aplenty'
p1148
I1
sS'cornyness'
p1149
I1
sS'intended'
p1150
I3
sS'RAIN'
p1151
I1
sS'soundtrack'
p1152
I7
sS'plane'
p1153
I7
sS'waves'
p1154
I1
sS'Swiss'
p1155
I1
sS'pleaded'
p1156
I1
sS'authentic'
p1157
I3
sS'F-Word'
p1158
I1
sS'refuse'
p1159
I2
sS'imagery'
p1160
I1
sS'twisting'
p1161
I1
sS'functionaries'
p1162
I1
sS'JFK'
p1163
I1
sS're-enforces'
p1164
I1
sS'pant'
p1165
I1
sS'furthering'
p1166
I1
sS'poplular'
p1167
I1
sS'trade'
p1168
I4
sS'resorts'
p1169
I1
sS'attitude'
p1170
I1
sS'paper'
p1171
I6
sS'brim'
p1172
I1
sS'sugarcoated'
p1173
I1
sS'its'
p1174
I33
sS'astrology'
p1175
I2
sS'Benjamin'
p1176
I1
sS'laced'
p1177
I3
sS'termed'
p1178
I1
sS'deeds'
p1179
I1
sS'sauce'
p1180
I1
sS'Sound'
p1181
I2
sS'it-'
p1182
I1
sS'entire'
p1183
I23
sS'Michael'
p1184
I12
sS'sucked'
p1185
I55
sS'Elliot'
p1186
I1
sS'Ricci'
p1187
I2
sS'always'
p1188
I15
sS'all-'
p1189
I1
sS'nauseous'
p1190
I1
sS'truths'
p1191
I1
sS'Pole'
p1192
I1
sS'STALLONE'
p1193
I1
sS'stepbrother'
p1194
I1
sS'Oswald'
p1195
I2
sS'found'
p1196
I26
sS'shocking'
p1197
I1
sS'disorganized'
p1198
I1
sS'reactions'
p1199
I1
sS'begged'
p1200
I1
sS'Rose'
p1201
I1
sS'fastforward'
p1202
I1
sS'really'
p1203
I101
sS'takeing'
p1204
I1
sS'Picture'
p1205
I2
sS'Yuck'
p1206
I4
sS'missed'
p1207
I5
sS'research'
p1208
I1
sS'Dramatic'
p1209
I1
sS'Report'
p1210
I1
sS'belief'
p1211
I1
sS'IT'
p1212
I16
sS'Drama'
p1213
I1
sS'Nine'
p1214
I1
sS'SHE'
p1215
I3
sS'imagine'
p1216
I7
sS'director'
p1217
I18
sS'misogyny'
p1218
I1
sS'positioning'
p1219
I1
sS'Years'
p1220
I1
sS'Shape'
p1221
I1
sS'afternoon'
p1222
I2
sS'w'
p1223
I2
sS'existential'
p1224
I1
sS'major'
p1225
I9
sS'god-awful'
p1226
I3
sS'contender'
p1227
I1
sS'inauthentic'
p1228
I1
sS'shameful'
p1229
I1
sS'bleeped'
p1230
I1
sS'guess'
p1231
I19
sS'heads'
p1232
I1
sS'jet'
p1233
I2
sS'Started'
p1234
I1
sS'cloying--most'
p1235
I1
sS'sodimized'
p1236
I1
sS'moderately'
p1237
I1
sS'flimsy'
p1238
I2
sS'justly'
p1239
I1
sS'codswallop'
p1240
I1
sS'relationship'
p1241
I4
sS'interviewed'
p1242
I1
sS'immediate'
p1243
I1
sS'Long'
p1244
I3
sS'focusing'
p1245
I2
sS'interviewer'
p1246
I1
sS'unrealistic'
p1247
I6
sS'critter'
p1248
I1
sS'Often'
p1249
I1
sS'vocal'
p1250
I1
sS'marriage'
p1251
I2
sS'sarcastic'
p1252
I1
sS'art-house'
p1253
I1
sS'Movie'
p1254
I16
sS'fights'
p1255
I3
sS'Connell'
p1256
I1
sS'magical'
p1257
I2
sS'Crude'
p1258
I1
sS'pranksters'
p1259
I1
sS'sell'
p1260
I6
sS'Club'
p1261
I1
sS'self'
p1262
I3
sS'shamala'
p1263
I1
sS'reliance'
p1264
I1
sS'also'
p1265
I37
sS'internal'
p1266
I1
sS'Othello'
p1267
I1
sS'pringles'
p1268
I1
sS'play'
p1269
I17
sS'Gambit'
p1270
I1
sS'relied'
p1271
I1
sS'nasal'
p1272
I1
sS'brooklyn'
p1273
I1
sS'plan'
p1274
I1
sS'Grail'
p1275
I1
sS'Groove'
p1276
I1
sS'Cose'
p1277
I1
sS'FROM'
p1278
I1
sS'sometimes'
p1279
I3
sS'cover'
p1280
I1
sS'masochists'
p1281
I1
sS'artistic'
p1282
I1
sS'barrel'
p1283
I1
sS'If'
p1284
I78
sS'dragged'
p1285
I6
sS'gospels'
p1286
I1
sS'ugh'
p1287
I2
sS'golf'
p1288
I2
sS'gold'
p1289
I2
sS'Had'
p1290
I2
sS'session'
p1291
I1
sS'Har'
p1292
I3
sS'Has'
p1293
I2
sS'Hat'
p1294
I1
sS'Kingdom'
p1295
I1
sS'PIECE'
p1296
I3
sS'writes'
p1297
I2
sS'writer'
p1298
I8
sS'reels'
p1299
I1
sS'failed'
p1300
I6
sS'factor'
p1301
I5
sS'Spice'
p1302
I2
sS'Patriot'
p1303
I2
sS'CREATED'
p1304
I1
sS'occuring'
p1305
I1
sS'allarming'
p1306
I1
sS'actress'
p1307
I7
sS'compass'
p1308
I1
sS'frightening'
p1309
I3
sS'wiccan'
p1310
I1
sS'occassional'
p1311
I1
sS'pleasures'
p1312
I2
sS'cry'
p1313
I5
sS'tanked'
p1314
I1
sS'Hell'
p1315
I1
sS'obscure'
p1316
I1
sS'R-rated'
p1317
I7
sS'set'
p1318
I13
sS'For'
p1319
I11
sS'creator'
p1320
I1
sS'carrying'
p1321
I1
sS'Fox'
p1322
I2
sS'sex'
p1323
I24
sS'Loreena'
p1324
I1
sS'see'
p1325
I153
sS'ad-libbed'
p1326
I1
sS'knees'
p1327
I1
sS'#'
p1328
I4
sS'muted'
p1329
I1
sS'movie'
p1330
I1040
sS'Sony'
p1331
I1
sS'propoganda'
p1332
I1
sS'monsters'
p1333
I1
sS'knowing'
p1334
I2
sS'self-centered'
p1335
I1
sS'condones'
p1336
I1
sS're-make'
p1337
I2
sS'last'
p1338
I25
sS'influential'
p1339
I1
sS'Fitch'
p1340
I1
sS'barely'
p1341
I6
sS'Tybalt'
p1342
I1
sS'connection'
p1343
I3
sS'Wilde'
p1344
I1
sS'retarded'
p1345
I4
sS'whole'
p1346
I46
sS'load'
p1347
I4
sS'drunk'
p1348
I4
sS'acted'
p1349
I8
sS'community'
p1350
I1
sS'coincidence'
p1351
I1
sS'agents'
p1352
I1
sS'adaptation'
p1353
I1
sS'sees'
p1354
I1
sS'Preview'
p1355
I1
sS'worthless'
p1356
I5
sS'devil'
p1357
I10
sS'filth'
p1358
I2
sS'publishing'
p1359
I1
sS'Gibson'
p1360
I9
sS'satire'
p1361
I1
sS'resting'
p1362
I1
sS'entertaining-'
p1363
I1
sS'fire'
p1364
I1
sS'finds'
p1365
I2
sS'awake'
p1366
I3
sS'Saudi'
p1367
I1
sS'receive'
p1368
I1
sS'Old'
p1369
I1
sS'straight'
p1370
I6
sS'expanded'
p1371
I1
sS'budget'
p1372
I10
sS'forgetting'
p1373
I1
sS'cagey'
p1374
I1
sS'Cold'
p1375
I1
sS'Cole'
p1376
I1
sS'robin'
p1377
I1
sS'Bastard'
p1378
I1
sS'pound'
p1379
I1
sS'hoping'
p1380
I9
sS'Mummy'
p1381
I1
sS'astupid'
p1382
I1
sS'brain-deads'
p1383
I1
sS'vow'
p1384
I1
sS'beautifully'
p1385
I1
sS'coca-cola'
p1386
I1
sS'chase'
p1387
I1
sS'funny'
p1388
I88
sS'stunk'
p1389
I2
sS'Akasha'
p1390
I1
sS'jawbreaker'
p1391
I1
sS'Nihilistic'
p1392
I1
sS'roll-your-eyes'
p1393
I1
sS'Ishtar'
p1394
I1
sS'virtually'
p1395
I2
sS'forgiveness'
p1396
I1
sS'Mathau'
p1397
I1
sS'affairs'
p1398
I1
sS'Guilty'
p1399
I1
sS'viewing'
p1400
I4
sS'levels'
p1401
I1
sS'zits'
p1402
I1
sS'rabid'
p1403
I1
sS'recent'
p1404
I1
sS'early'
p1405
I5
sS'loathsome'
p1406
I1
sS'Son'
p1407
I1
sS'attrocity'
p1408
I1
sS'person'
p1409
I21
sS'Rate'
p1410
I1
sS'strobe'
p1411
I1
sS'prpackaged'
p1412
I1
sS'4hrs'
p1413
I1
sS'Karl'
p1414
I1
sS'detract'
p1415
I1
sS'glitz'
p1416
I1
sS'HORROR'
p1417
I1
sS'Horribly'
p1418
I1
sS'befuddled'
p1419
I1
sS'Horrible'
p1420
I4
sS'hiliarity'
p1421
I1
sS'Brando'
p1422
I1
sS'Frodo'
p1423
I1
sS'advertisements'
p1424
I1
sS'eager'
p1425
I2
sS'ever-gleeful'
p1426
I1
sS'parents'
p1427
I8
sS'crying'
p1428
I1
sS'depravity'
p1429
I1
sS'surprised'
p1430
I5
sS'Winslet'
p1431
I1
sS'Both'
p1432
I5
sS'Daniels'
p1433
I1
sS'Ok'
p1434
I1
sS'format'
p1435
I1
sS'Of'
p1436
I6
sS'couple'
p1437
I9
sS'sleeper'
p1438
I1
sS'wives'
p1439
I2
sS'suffering'
p1440
I4
sS'quest'
p1441
I1
sS'fortune'
p1442
I2
sS'Or'
p1443
I5
sS'ON'
p1444
I2
sS'OK'
p1445
I5
sS'd'
p1446
I36
sS'OH'
p1447
I2
sS'squandered'
p1448
I1
sS'OF'
p1449
I10
sS'consensus'
p1450
I1
sS'continue'
p1451
I5
sS'OY'
p1452
I1
sS'WEDDING'
p1453
I1
sS'Dakota'
p1454
I1
sS'disorder'
p1455
I2
sS'OR'
p1456
I2
sS'names'
p1457
I1
sS'partying'
p1458
I2
sS'Silent'
p1459
I1
sS'senate'
p1460
I1
sS'sighn'
p1461
I1
sS'Likeable'
p1462
I1
sS'FIGHT'
p1463
I1
sS'Fahrenheit'
p1464
I1
sS'Andy'
p1465
I2
sS'sight'
p1466
I2
sS'HOME'
p1467
I1
sS'curious'
p1468
I1
sS'pale'
p1469
I1
sS'BORING'
p1470
I11
sS'novelty'
p1471
I1
sS'religion'
p1472
I1
sS'be'
p1473
I279
sS'replaced'
p1474
I2
sS'Vin'
p1475
I2
sS'crooks'
p1476
I1
sS'Hella'
p1477
I1
sS'nowhere'
p1478
I8
sS'Hello'
p1479
I1
sS'deserved'
p1480
I5
sS'exaggerated'
p1481
I1
sS'deserves'
p1482
I5
sS'Mediocre'
p1483
I2
sS'Pokemon'
p1484
I5
sS'Katie'
p1485
I2
sS'MENTAL'
p1486
I1
sS'garbage'
p1487
I26
sS'into'
p1488
I50
sS'appropriate'
p1489
I1
sS'Baby"'
p1490
I1
sS'NEW'
p1491
I1
sS'Manichaean'
p1492
I1
sS'span'
p1493
I1
sS'spending'
p1494
I1
sS'gross-out'
p1495
I3
sS'thirdly'
p1496
I1
sS'suit'
p1497
I3
sS'walls'
p1498
I2
sS':'
p1499
I81
sS'opens'
p1500
I3
sS'Sixth'
p1501
I1
sS'poster'
p1502
I4
sS'Holocaust'
p1503
I1
sS'undeserving'
p1504
I1
sS'archaic'
p1505
I1
sS'line'
p1506
I15
sS'Mark'
p1507
I2
sS'charmed'
p1508
I1
sS'redeemed'
p1509
I2
sS'up'
p1510
I111
sS'us'
p1511
I15
sS'redeemer'
p1512
I1
sS'mature'
p1513
I1
sS'Brits'
p1514
I1
sS'vengence'
p1515
I1
sS'Whoopie'
p1516
I1
sS'reconcile'
p1517
I1
sS'twenty-something'
p1518
I1
sS'Malkovich'
p1519
I2
sS'nightmares'
p1520
I1
sS'haunt'
p1521
I1
sS'Wastes'
p1522
I1
sS'preventing'
p1523
I1
sS'points'
p1524
I4
sS'actors'
p1525
I34
sS'scraps'
p1526
I1
sS'Arthurian'
p1527
I1
sS'elements'
p1528
I2
sS'sided'
p1529
I1
sS'B-O-R-I-N-G'
p1530
I1
sS'sides'
p1531
I1
sS'ago'
p1532
I9
sS'land'
p1533
I1
sS'fighter'
p1534
I3
sS'Gardener"'
p1535
I1
sS'age'
p1536
I6
sS'holes'
p1537
I4
sS'walked'
p1538
I9
sS'chick-flick'
p1539
I1
sS'hella'
p1540
I4
sS'inaccuracy'
p1541
I1
sS'fresh'
p1542
I1
sS'having'
p1543
I13
sS'Razor'
p1544
I1
sS'scratch'
p1545
I1
sS'Jim'
p1546
I13
sS'results'
p1547
I2
sS'enjoyable'
p1548
I2
sS'actualy'
p1549
I1
sS'broader'
p1550
I1
sS'freakin'
p1551
I2
sS'Goldblum'
p1552
I2
sS'churned'
p1553
I3
sS'seemed'
p1554
I26
sS'Pathetic'
p1555
I7
sS'concerned'
p1556
I2
sS'young'
p1557
I9
sS'send'
p1558
I3
sS'dislike'
p1559
I2
sS'sent'
p1560
I1
sS'torture'
p1561
I6
sS'continues'
p1562
I2
sS'brilliance'
p1563
I2
sS'well-done'
p1564
I1
sS'manipulated'
p1565
I1
sS'manhatton'
p1566
I1
sS'mixing'
p1567
I1
sS'wipe'
p1568
I1
sS'magic'
p1569
I10
sS'try'
p1570
I13
sS'ONLY'
p1571
I4
sS'race'
p1572
I4
sS'that4hrs'
p1573
I1
sS'ignornat'
p1574
I1
sS'pledge'
p1575
I2
sS'cannibals'
p1576
I1
sS'insists'
p1577
I1
sS'seventies'
p1578
I2
sS'crook'
p1579
I1
sS'video'
p1580
I16
sS'snob-I'
p1581
I1
sS'graduating'
p1582
I1
sS'Jessica'
p1583
I1
sS'Darth'
p1584
I1
sS'expressed'
p1585
I2
sS'Chainsaw'
p1586
I2
sS'500'
p1587
I2
sS'klingon'
p1588
I1
sS'leg'
p1589
I1
sS'punch'
p1590
I1
sS'let'
p1591
I26
sS'second-rate'
p1592
I1
sS'LeBlanc'
p1593
I1
sS'invented'
p1594
I1
sS'fifteen'
p1595
I3
sS'great'
p1596
I54
sS'technical'
p1597
I1
sS'involved'
p1598
I11
sS'insulin'
p1599
I1
sS'popcorn'
p1600
I1
sS'opinion'
p1601
I9
sS'makes'
p1602
I50
sS'maker'
p1603
I2
sS'thats'
p1604
I5
sS'terrified'
p1605
I2
sS'sensitize'
p1606
I1
sS'dumbest'
p1607
I3
sS'Stone'
p1608
I1
sS'Fred'
p1609
I1
sS'bent'
p1610
I1
sS'standing'
p1611
I3
sS'HEART'
p1612
I1
sS'confidence'
p1613
I1
sS'cheered'
p1614
I2
sS'illegal'
p1615
I3
sS'theme'
p1616
I7
sS'next'
p1617
I15
sS'doubt'
p1618
I7
sS'humorless'
p1619
I1
sS'forefathers'
p1620
I1
sS'Aeon'
p1621
I1
sS'incredibley'
p1622
I1
sS'pencil'
p1623
I1
sS'Plain'
p1624
I1
sS'bodily'
p1625
I1
sS'unclearly'
p1626
I1
sS'soooooooo'
p1627
I1
sS'Gump'
p1628
I1
sS'rubbish'
p1629
I5
sS'baby'
p1630
I2
sS'pieces'
p1631
I9
sS'Generations'
p1632
I1
sS'high'
p1633
I26
sS'balls'
p1634
I1
sS'animals'
p1635
I3
sS'LOST'
p1636
I1
sS'effectively'
p1637
I2
sS'this'
p1638
I939
sS'challenge'
p1639
I2
sS'Mainly'
p1640
I1
sS'pour'
p1641
I1
sS'reproduce'
p1642
I1
sS'Spoonfuls'
p1643
I1
sS'thin'
p1644
I2
sS'Subtle'
p1645
I1
sS'AAAAHHHHH'
p1646
I1
sS'weaker'
p1647
I1
sS'Police'
p1648
I2
sS'Dreadfully'
p1649
I1
sS'process'
p1650
I2
sS'promotional'
p1651
I2
sS'depiction'
p1652
I2
sS'Cats'
p1653
I1
sS'slip'
p1654
I1
sS'bastardization'
p1655
I1
sS'TRYING'
p1656
I1
sS'Christmas'
p1657
I2
sS'martyr'
p1658
I1
sS'destroying'
p1659
I1
sS'animal'
p1660
I1
sS'Costner'
p1661
I2
sS'comedy'
p1662
I45
sS'intelligent'
p1663
I2
sS'tied'
p1664
I1
sS'Q'
p1665
I2
sS'pigs'
p1666
I1
sS'fits'
p1667
I1
sS'cabbage'
p1668
I1
sS'Donnell'
p1669
I1
sS'gags'
p1670
I3
sS'no-talents'
p1671
I1
sS'CRAP'
p1672
I7
sS'Apple'
p1673
I1
sS'lame'
p1674
I12
sS'robot'
p1675
I1
sS'One'
p1676
I37
sS'sc-fi'
p1677
I1
sS'allow'
p1678
I2
sS'classy'
p1679
I1
sS'intellectuals'
p1680
I1
sS'over-elaborate'
p1681
I1
sS'Catholic'
p1682
I1
sS'producer'
p1683
I4
sS'produces'
p1684
I1
sS'BIGBABY'
p1685
I1
sS'insight'
p1686
I1
sS'McConaughy'
p1687
I1
sS'produced'
p1688
I5
sS'perfect'
p1689
I4
sS'Extremly'
p1690
I1
sS'Freebird'
p1691
I1
sS'chosen'
p1692
I1
sS'slow-motion'
p1693
I1
sS'cuss'
p1694
I1
sS'ship'
p1695
I7
sS'heavy-handed'
p1696
I1
sS'bothering'
p1697
I1
sS'kiss'
p1698
I4
sS'waterboy'
p1699
I1
sS'TICKET'
p1700
I1
sS'genuine'
p1701
I2
sS'pompous'
p1702
I1
sS'realize'
p1703
I7
sS'Sam'
p1704
I1
sS'Rental'
p1705
I1
sS'Russel'
p1706
I2
sS'Sad'
p1707
I1
sS'Conan'
p1708
I2
sS'truth'
p1709
I2
sS'shortage'
p1710
I1
sS'accounts'
p1711
I1
sS'beneath'
p1712
I1
sS'Saw'
p1713
I1
sS'Kate'
p1714
I2
sS'glasses'
p1715
I2
sS'Network'
p1716
I1
sS'doing'
p1717
I15
sS'society'
p1718
I2
sS'books'
p1719
I10
sS'FUN'
p1720
I1
sS"'"
p1721
I1266
sS'Very'
p1722
I15
sS'monumental'
p1723
I1
sS'hilarious'
p1724
I4
sS'shut'
p1725
I3
sS'greedy'
p1726
I1
sS'Freddy'
p1727
I8
sS'surely'
p1728
I1
sS'frigging'
p1729
I1
sS'tempt'
p1730
I1
sS'Meet'
p1731
I1
sS'Spend'
p1732
I1
sS'Loudmouth'
p1733
I1
sS'scary'
p1734
I51
sS'gallons'
p1735
I1
sS'could'
p1736
I105
sS'dictator'
p1737
I1
sS'Jesus'
p1738
I12
sS'length'
p1739
I2
sS'bah'
p1740
I1
sS'scare'
p1741
I2
sS'Jamie'
p1742
I1
sS'blown'
p1743
I2
sS'yells'
p1744
I1
sS'scene'
p1745
I23
sS'owned'
p1746
I1
sS'jesus'
p1747
I2
sS'Kubric'
p1748
I1
sS'owner'
p1749
I1
sS'blows'
p1750
I5
sS'backbone'
p1751
I1
sS'reference'
p1752
I3
sS'Dubelle'
p1753
I2
sS'SWORDFISH'
p1754
I1
sS'system'
p1755
I1
sS'Adult'
p1756
I1
sS'Iraq'
p1757
I6
sS'spaceship'
p1758
I1
sS'painful'
p1759
I8
sS'stomach'
p1760
I4
sS'lot'
p1761
I26
sS'shorts'
p1762
I1
sS'HERE'
p1763
I1
sS'Pretentious'
p1764
I1
sS'depressing'
p1765
I4
sS'applauds'
p1766
I1
sS'elite'
p1767
I1
sS'haven'
p1768
I8
sS'floatation'
p1769
I1
sS'OMG'
p1770
I2
sS'bother'
p1771
I12
sS'extraordinarily'
p1772
I1
sS'tortured'
p1773
I4
sS'roberts'
p1774
I1
sS'appealing'
p1775
I3
sS'Corny'
p1776
I1
sS'HORRIBLE'
p1777
I6
sS'gays'
p1778
I1
sS'steer'
p1779
I2
sS'false'
p1780
I1
sS'viewer'
p1781
I6
sS'Marrying'
p1782
I1
sS'abomination'
p1783
I2
sS'DMX'
p1784
I1
sS'Secret'
p1785
I1
sS'element'
p1786
I1
sS'Cubby'
p1787
I1
sS'clearly'
p1788
I3
sS'biik'
p1789
I1
sS'BIG'
p1790
I4
sS'probly'
p1791
I1
sS'uncalled'
p1792
I1
sS'ashore'
p1793
I1
sS'accuracy'
p1794
I2
sS'Pierce'
p1795
I3
sS'sophomoric'
p1796
I1
sS'THING'
p1797
I2
sS'bowlingfortruth'
p1798
I1
sS'device'
p1799
I1
sS'Run'
p1800
I1
sS'THINK'
p1801
I1
sS'STINKS'
p1802
I1
sS'so-called'
p1803
I4
sS'placement'
p1804
I1
sS'STINKY'
p1805
I1
sS'face'
p1806
I9
sS'fact'
p1807
I34
sS'TAXI'
p1808
I1
sS'atmosphere'
p1809
I2
sS'Paris'
p1810
I1
sS'Rangers'
p1811
I2
sS'WANT'
p1812
I1
sS'bedroom'
p1813
I1
sS'rough'
p1814
I1
sS'trivial'
p1815
I1
sS'decade'
p1816
I2
sS'noir'
p1817
I1
sS'Escalades'
p1818
I1
sS'should'
p1819
I83
sS'tape'
p1820
I4
sS'riding'
p1821
I2
sS'Marvel'
p1822
I1
sS'flinch'
p1823
I1
sS'hope'
p1824
I14
sS'move'
p1825
I7
sS'handle'
p1826
I1
sS'pets'
p1827
I1
sS'means'
p1828
I3
sS'Whether'
p1829
I1
sS'familiar'
p1830
I1
sS'lucky'
p1831
I1
sS'Keep'
p1832
I2
sS'antagonist'
p1833
I1
sS'Once'
p1834
I7
sS'smash'
p1835
I1
sS'Because'
p1836
I5
sS'centerist'
p1837
I1
sS'hemorrhoid'
p1838
I1
sS'Paltrow'
p1839
I3
sS'comics'
p1840
I2
sS'Well-written'
p1841
I1
sS'stuff'
p1842
I22
sS'Gilmore'
p1843
I1
sS'Pauly'
p1844
I1
sS'frame'
p1845
I1
sS'screwball'
p1846
I1
sS'10-year-old'
p1847
I1
sS'packed'
p1848
I1
sS'wire'
p1849
I1
sS'superhero'
p1850
I1
sS'destiny'
p1851
I1
sS'insulting'
p1852
I3
sS'nuclear'
p1853
I1
sS'partisan'
p1854
I1
sS'WARNING'
p1855
I1
sS'NINE'
p1856
I1
sS'PG'
p1857
I1
sS'Jackman'
p1858
I1
sS'harsher'
p1859
I1
sS'Republican'
p1860
I2
sS'email'
p1861
I1
sS'ends'
p1862
I4
sS'sleazy'
p1863
I1
sS'staring'
p1864
I4
sS'figured'
p1865
I4
sS'Mystic'
p1866
I1
sS'invited'
p1867
I2
sS'drug'
p1868
I3
sS'etc'
p1869
I13
sS'figures'
p1870
I2
sS'Autism'
p1871
I1
sS'chaplin'
p1872
I1
sS'Christ'
p1873
I4
sS'Would'
p1874
I3
sS'Barbie'
p1875
I1
sS'Girls'
p1876
I2
sS'Hey'
p1877
I6
sS'Gooding'
p1878
I1
sS'crafted'
p1879
I2
sS'cr'
p1880
I1
sS'THis'
p1881
I3
sS'outsider'
p1882
I1
sS'Get'
p1883
I6
sS'\xa9'
p1884
I1
sS'Space'
p1885
I5
sS'roller'
p1886
I2
sS'Rosalind'
p1887
I1
sS'waste'
p1888
I65
sS'Gen'
p1889
I1
sS'J-should'
p1890
I1
sS'homosexual'
p1891
I1
sS'hateful'
p1892
I1
sS'graphics'
p1893
I6
sS'Slightly'
p1894
I1
sS'Wilder'
p1895
I1
sS'genghis'
p1896
I1
sS'CALL'
p1897
I1
sS'pretentious'
p1898
I3
sS'expiration'
p1899
I1
sS'rigged'
p1900
I1
sS'bathtub'
p1901
I2
sS've'
p1902
I68
sS'ripe'
p1903
I1
sS'insanely'
p1904
I1
sS'surprisingly'
p1905
I2
sS'name--LL'
p1906
I1
sS'lust'
p1907
I1
sS'vs'
p1908
I5
sS'optimistic'
p1909
I1
sS'tattoo'
p1910
I1
sS'denial'
p1911
I3
sS'McConahay'
p1912
I1
sS'romance'
p1913
I3
sS'bastardising'
p1914
I1
sS'FX'
p1915
I2
sS'Danny'
p1916
I3
sS'Douche'
p1917
I1
sS'emotionally'
p1918
I3
sS'bald'
p1919
I1
sS'upon'
p1920
I4
sS'laughably'
p1921
I1
sS'Greg'
p1922
I1
sS'assinine'
p1923
I1
sS'identity'
p1924
I1
sS'discounted'
p1925
I1
sS'reguarded'
p1926
I1
sS'Julie'
p1927
I1
sS'Julia'
p1928
I5
sS'350'
p1929
I1
sS'drawing'
p1930
I1
sS'snake'
p1931
I2
sS'lest'
p1932
I1
sS'Suspects'
p1933
I1
sS'dar'
p1934
I1
sS'flesh'
p1935
I3
sS'humor-'
p1936
I1
sS'Absolutly'
p1937
I1
sS'DEAR'
p1938
I1
sS'broomstick'
p1939
I1
sS'Dark'
p1940
I9
sS'floor-faced'
p1941
I1
sS'METER'
p1942
I1
sS'day'
p1943
I21
sS'arrest'
p1944
I1
sS'combine'
p1945
I1
sS'wet'
p1946
I1
sS'dis-tasteful'
p1947
I1
sS'vain'
p1948
I1
sS'innocents'
p1949
I1
sS'Unfortunately'
p1950
I7
sS'government'
p1951
I2
sS'checking'
p1952
I1
sS'famously'
p1953
I1
sS'90ies'
p1954
I1
sS'five'
p1955
I4
sS'fools'
p1956
I2
sS'disservice'
p1957
I1
sS'excremental'
p1958
I1
sS'Creek'
p1959
I3
sS'bigotry'
p1960
I1
sS'Interesting'
p1961
I1
sS'galliant'
p1962
I1
sS'nerves'
p1963
I1
sS'lamest'
p1964
I2
sS'Quit'
p1965
I1
sS'indications'
p1966
I1
sS'zzzzz'
p1967
I1
sS'footage'
p1968
I4
sS'BULL'
p1969
I1
sS'Great'
p1970
I4
sS'gymnastics'
p1971
I1
sS'thier'
p1972
I4
sS'transport'
p1973
I1
sS'Eugene'
p1974
I1
sS'Warrior'
p1975
I1
sS'henchman'
p1976
I1
sS'disbelief'
p1977
I1
sS'literally'
p1978
I3
sS'avoid'
p1979
I7
sS'kiddy'
p1980
I1
sS'Gaynor'
p1981
I1
sS'anti-semitism'
p1982
I2
sS'passion'
p1983
I3
sS'stairway'
p1984
I1
sS'blowing'
p1985
I1
sS'Astonishing'
p1986
I1
sS'shortchanging'
p1987
I1
sS'gained'
p1988
I1
sS'Sci'
p1989
I1
sS'concession'
p1990
I1
sS'documentary'
p1991
I8
sS'suited'
p1992
I1
sS'Wallace'
p1993
I1
sS'flailing'
p1994
I1
sS'mere'
p1995
I2
sS'Gentiles'
p1996
I1
sS'Cahrlie'
p1997
I1
sS'pairing'
p1998
I1
sS'spots'
p1999
I2
sS'Worrying'
p2000
I1
sS'bump'
p2001
I2
sS'trigger'
p2002
I1
sS'SciFi'
p2003
I2
sS'troubling'
p2004
I1
sS'ditsy'
p2005
I1
sS'naturally'
p2006
I1
sS'building'
p2007
I1
sS'Talent'
p2008
I2
sS'CORNY'
p2009
I2
sS'suits'
p2010
I1
sS'screwups'
p2011
I1
sS'Well'
p2012
I5
sS'lowered'
p2013
I1
sS'delivers'
p2014
I1
sS'count'
p2015
I2
sS'tossed'
p2016
I1
sS'Gettysburg'
p2017
I1
sS'excitement'
p2018
I1
sS'convince'
p2019
I2
sS'problem'
p2020
I8
sS'Micallef'
p2021
I1
sS'CK'
p2022
I1
sS'irish'
p2023
I1
sS'SPOILERS'
p2024
I1
sS'WRITTEN'
p2025
I1
sS'unwatchable'
p2026
I3
sS'ing'
p2027
I4
sS'Rustin'
p2028
I1
sS'retrospect'
p2029
I1
sS'DAD'
p2030
I1
sS'compared'
p2031
I2
sS'nonetheless'
p2032
I1
sS'trials'
p2033
I1
sS'Utah'
p2034
I1
sS'Vicious'
p2035
I1
sS'Else'
p2036
I1
sS'popping'
p2037
I1
sS'DAY'
p2038
I1
sS'moviehouses'
p2039
I1
sS'repeat'
p2040
I3
sS'Lost'
p2041
I5
sS'unoriginal'
p2042
I1
sS'Believer'
p2043
I1
sS'chance'
p2044
I2
sS'Congressman'
p2045
I2
sS'veil'
p2046
I1
sS'vein'
p2047
I1
sS'exposure'
p2048
I2
sS'rule'
p2049
I1
sS'pandering'
p2050
I1
sS'compete'
p2051
I1
sS'villainous'
p2052
I1
sS'rep'
p2053
I1
sS'suicidal'
p2054
I1
sS'Gremlins'
p2055
I1
sS'saves'
p2056
I3
sS'bizzare'
p2057
I1
sS'Tilly'
p2058
I1
sS'saved'
p2059
I3
sS'stinks'
p2060
I6
sS'porno'
p2061
I2
sS'Watch'
p2062
I2
sS'PHILADELPHIA'
p2063
I1
sS'endings'
p2064
I1
sS'voted'
p2065
I2
sS'worth'
p2066
I25
sS'alternating'
p2067
I1
sS'compassion'
p2068
I1
sS'distort'
p2069
I1
sS'manic'
p2070
I2
sS'"documentaries"'
p2071
I1
sS'Military'
p2072
I1
sS'gobbled'
p2073
I1
sS'tickets'
p2074
I2
sS'SNL'
p2075
I2
sS'red'
p2076
I1
sS'Kinsey'
p2077
I2
sS'MAN'
p2078
I1
sS'originate'
p2079
I1
sS'blasphemy'
p2080
I2
sS'phones'
p2081
I1
sS'approximation'
p2082
I1
sS'depraved'
p2083
I1
sS'machines'
p2084
I1
sS'LSD'
p2085
I1
sS'realesed'
p2086
I1
sS'Partly'
p2087
I1
sS'low-brow'
p2088
I1
sS'+'
p2089
I5
sS'above'
p2090
I5
sS'Sally'
p2091
I1
sS'consisting'
p2092
I1
sS'told'
p2093
I6
sS'textures'
p2094
I1
sS'extremly'
p2095
I4
sS'sinks'
p2096
I1
sS'habla'
p2097
I1
sS'Stiles'
p2098
I2
sS'protection'
p2099
I1
sS'celebration'
p2100
I1
sS'Hilfiger'
p2101
I1
sS'daughter'
p2102
I6
sS'Queen'
p2103
I1
sS'YIKES'
p2104
I1
sS'cash--unless'
p2105
I1
sS'smoke'
p2106
I3
sS'Home'
p2107
I1
sS'anarchist'
p2108
I1
sS'Orleans'
p2109
I1
sS'Jet'
p2110
I2
sS'Connery'
p2111
I1
sS'spooky'
p2112
I1
sS'graders'
p2113
I1
sS'inflicting'
p2114
I1
sS'AVTAK'
p2115
I1
sS'highly'
p2116
I5
sS'Lampoon'
p2117
I1
sS'cheats'
p2118
I1
sS'Satan'
p2119
I7
sS'meanduring'
p2120
I1
sS'glance'
p2121
I1
sS'total'
p2122
I20
sS'bra'
p2123
I1
sS'plot'
p2124
I100
sS'Star'
p2125
I16
sS'Drugs'
p2126
I1
sS'ploy'
p2127
I1
sS'negative'
p2128
I8
sS'insult'
p2129
I10
sS'sweated'
p2130
I1
sS'FORCED'
p2131
I1
sS'escapism'
p2132
I1
sS'infusion'
p2133
I1
sS'award'
p2134
I1
sS'Mouseketeer'
p2135
I1
sS'backwards'
p2136
I1
sS'yard'
p2137
I1
sS'Gilligan'
p2138
I1
sS'word'
p2139
I18
sS'divorced'
p2140
I1
sS'1996'
p2141
I2
sS'1998'
p2142
I1
sS'work'
p2143
I26
sS'era'
p2144
I5
sS'mechanic'
p2145
I1
sS'EVER'
p2146
I8
sS'Barbarino'
p2147
I1
sS'heartless'
p2148
I1
sS'Couldn'
p2149
I4
sS'disguistingly'
p2150
I1
sS'cartoon-like'
p2151
I1
sS'masscre'
p2152
I1
sS'provide'
p2153
I1
sS'agony'
p2154
I1
sS'better-I'
p2155
I1
sS'one-liners'
p2156
I1
sS'foulest'
p2157
I1
sS'moron'
p2158
I1
sS'disappoint'
p2159
I1
sS'ordinary'
p2160
I2
sS'beach'
p2161
I3
sS'Renee'
p2162
I3
sS'Wilt'
p2163
I1
sS'over-when'
p2164
I1
sS'after'
p2165
I46
sS'Interrupted'
p2166
I1
sS'Will'
p2167
I9
sS'law'
p2168
I1
sS'porpous'
p2169
I1
sS'appreciate'
p2170
I3
sS'green'
p2171
I2
sS'worst'
p2172
I117
sS'Trust'
p2173
I3
sS'order'
p2174
I4
sS'Hustler'
p2175
I1
sS'infested'
p2176
I1
sS'office'
p2177
I7
sS'satisfied'
p2178
I1
sS'guilt-ridden'
p2179
I1
sS'F---'
p2180
I2
sS'Jackass'
p2181
I1
sS'bombing'
p2182
I1
sS'shean'
p2183
I1
sS'somewhere'
p2184
I3
sS'RunTelDat'
p2185
I1
sS'Drew'
p2186
I5
sS'awfulness'
p2187
I1
sS'production'
p2188
I6
sS'Leota'
p2189
I1
sS'Burns'
p2190
I1
sS'eventually'
p2191
I2
sS'them'
p2192
I62
sS'affected'
p2193
I1
sS'thee'
p2194
I1
sS'sleepiness'
p2195
I1
sS'stuttering'
p2196
I1
sS'break'
p2197
I6
sS'bang'
p2198
I2
sS'repulsive'
p2199
I2
sS'Omar'
p2200
I1
sS'they'
p2201
I193
sS'ther'
p2202
I1
sS'bank'
p2203
I1
sS'bread'
p2204
I1
sS'embarrassed'
p2205
I4
sS'slavery'
p2206
I2
sS'no-brain'
p2207
I1
sS'rocks'
p2208
I2
sS'Marque'
p2209
I1
sS'reasonable'
p2210
I2
sS'thruout'
p2211
I1
sS'no-talent'
p2212
I1
sS'crimes'
p2213
I1
sS'SOME'
p2214
I1
sS'mangled'
p2215
I1
sS'flock'
p2216
I1
sS'recognizable'
p2217
I1
sS'Kruger'
p2218
I1
sS'whining'
p2219
I1
sS'network'
p2220
I1
sS'Myth'
p2221
I1
sS'cameras'
p2222
I3
sS'Wars'
p2223
I10
sS'trainers'
p2224
I1
sS'strangers'
p2225
I1
sS'forth'
p2226
I1
sS'preceed'
p2227
I1
sS'Scary'
p2228
I1
sS'Originally'
p2229
I1
sS'standard'
p2230
I1
sS'ancient'
p2231
I3
sS'Scare'
p2232
I1
sS'renee'
p2233
I1
sS'Ugh'
p2234
I5
sS'WWF-like'
p2235
I1
sS'unfulfilled'
p2236
I1
sS'created'
p2237
I6
sS'National'
p2238
I1
sS'creates'
p2239
I1
sS'lousy'
p2240
I5
sS'oppose'
p2241
I1
sS'redeaming'
p2242
I2
sS'Bridges'
p2243
I3
sS'Cooper'
p2244
I1
sS'Bridget'
p2245
I1
sS'in-route'
p2246
I1
sS'another'
p2247
I41
sS'comic'
p2248
I10
sS'rated'
p2249
I6
sS'defineable'
p2250
I1
sS'WAAAAAAYYYYY'
p2251
I1
sS'elevator'
p2252
I2
sS'compromise'
p2253
I1
sS'farming'
p2254
I1
sS'lunatics'
p2255
I1
sS'B'
p2256
I1
sS'albert'
p2257
I1
sS'wastes'
p2258
I2
sS'tabloids'
p2259
I1
sS'wasted'
p2260
I20
sS'Gene'
p2261
I4
sS'hog-tie'
p2262
I1
sS'mercy'
p2263
I1
sS'glorified'
p2264
I2
sS'hike'
p2265
I1
sS'scenes'
p2266
I34
sS'Sex'
p2267
I1
sS'glorifies'
p2268
I2
sS'See'
p2269
I5
sS'historical'
p2270
I3
sS'powers'
p2271
I4
sS'minus'
p2272
I1
sS'Kinnear'
p2273
I1
sS'manner'
p2274
I1
sS'bleeech'
p2275
I1
sS'Instead'
p2276
I12
sS'contents'
p2277
I1
sS'forced'
p2278
I6
sS'ponder'
p2279
I1
sS'strength'
p2280
I1
sS'realm'
p2281
I1
sS'laden'
p2282
I1
sS'latter'
p2283
I1
sS'circles'
p2284
I2
sS'sue'
p2285
I1
sS'MILF'
p2286
I1
sS'involving'
p2287
I1
sS'scripts'
p2288
I3
sS'phase'
p2289
I1
sS'Went'
p2290
I1
sS'Side'
p2291
I1
sS'grave'
p2292
I2
sS'darkness'
p2293
I2
sS'Lewis'
p2294
I1
sS'Scene'
p2295
I2
sS'unsophisticated'
p2296
I1
sS'appaulling'
p2297
I1
sS'notion'
p2298
I3
sS'fitted'
p2299
I1
sS'renting'
p2300
I5
sS'bimbo'
p2301
I1
sS'subtle'
p2302
I2
sS'Anne'
p2303
I1
sS'Slater'
p2304
I2
sS'Thank'
p2305
I4
sS'resemblance'
p2306
I1
sS'absurdities'
p2307
I1
sS'Republicans'
p2308
I1
sS'Krueger'
p2309
I1
sS'squirmed'
p2310
I1
sS'screening'
p2311
I3
sS'Mick'
p2312
I1
sS'adequate'
p2313
I1
sS'personality'
p2314
I5
sS'predecessor'
p2315
I1
sS'do'
p2316
I86
sS'de'
p2317
I1
sS'Aerosmiths'
p2318
I1
sS'carries'
p2319
I1
sS'nasty'
p2320
I5
sS'beleive'
p2321
I3
sS'runs'
p2322
I3
sS'Strangelove'
p2323
I2
sS'gears'
p2324
I1
sS'wannabe'
p2325
I2
sS'steak'
p2326
I2
sS'Marys'
p2327
I1
sS'umcomfortable'
p2328
I1
sS'Jackson'
p2329
I4
sS'miserably'
p2330
I3
sS'depends'
p2331
I1
sS'Foster'
p2332
I2
sS'cattle'
p2333
I1
sS'Judeo-Christian'
p2334
I1
sS'miserable'
p2335
I3
sS'Hardly'
p2336
I1
sS'techniques'
p2337
I1
sS'pasted'
p2338
I1
sS'away'
p2339
I28
sS'BUT'
p2340
I1
sS'mantels'
p2341
I1
sS'Water'
p2342
I6
sS'props'
p2343
I1
sS'drawn'
p2344
I6
sS'Happy'
p2345
I3
sS'Bringing'
p2346
I1
sS'story-lined'
p2347
I1
sS'2-hour'
p2348
I1
sS'we'
p2349
I52
sS'terms'
p2350
I1
sS'Eastwood'
p2351
I2
sS'ws'
p2352
I1
sS'clues'
p2353
I1
sS'bras'
p2354
I1
sS'Winkler'
p2355
I2
sS'essentially'
p2356
I1
sS'cow'
p2357
I3
sS'brat'
p2358
I2
sS'excrement'
p2359
I1
sS'herendously'
p2360
I1
sS'ill'
p2361
I3
sS'Shore'
p2362
I1
sS'Bring'
p2363
I1
sS'Coltrane'
p2364
I1
sS'receives'
p2365
I1
sS'requests'
p2366
I1
sS'com'
p2367
I4
sS'bran'
p2368
I1
sS'tough'
p2369
I1
sS'spear'
p2370
I1
sS'Weak'
p2371
I1
sS'trunk'
p2372
I1
sS'tons'
p2373
I4
sS'masterpeice'
p2374
I1
sS'speak'
p2375
I4
sS'petty'
p2376
I1
sS'Kerry'
p2377
I3
sS'Aragorn'
p2378
I1
sS'dumb-ass'
p2379
I1
sS'charisma'
p2380
I1
sS'dozens'
p2381
I1
sS'cutouts'
p2382
I1
sS'families'
p2383
I3
sS'easy'
p2384
I3
sS'coherent'
p2385
I1
sS'Night'
p2386
I2
sS'Rufus'
p2387
I1
sS'east'
p2388
I1
sS'air'
p2389
I1
sS'depictions'
p2390
I1
sS'ain'
p2391
I1
sS'property'
p2392
I1
sS'tellers'
p2393
I1
sS'mistake'
p2394
I2
sS'stink'
p2395
I2
sS'have'
p2396
I322
sS'dumped'
p2397
I1
sS'dizzy'
p2398
I2
sS'uplift'
p2399
I1
sS'confirmed'
p2400
I2
sS'blockbuster'
p2401
I2
sS'predictibal'
p2402
I1
sS'perform'
p2403
I2
sS'apparently'
p2404
I9
sS'Stop'
p2405
I3
sS'adjectives'
p2406
I1
sS'plates'
p2407
I1
sS'convictions'
p2408
I1
sS'raid'
p2409
I1
sS'fuss'
p2410
I1
sS'blames'
p2411
I1
sS'Steve'
p2412
I1
sS'evil'
p2413
I10
sS'hand'
p2414
I3
sS'liberties'
p2415
I1
sS'movie-goers'
p2416
I1
sS'producers'
p2417
I6
sS'alums'
p2418
I1
sS'kept'
p2419
I5
sS'1979'
p2420
I1
sS'1977'
p2421
I1
sS'1600'
p2422
I1
sS'1975'
p2423
I1
sS'tht'
p2424
I1
sS'thr'
p2425
I1
sS'campy'
p2426
I1
sS'contact'
p2427
I1
sS'tormenting'
p2428
I1
sS'the'
p2429
I2416
sS'musical'
p2430
I8
sS'ultra-liberal'
p2431
I1
sS'Pete'
p2432
I2
sS'FATE'
p2433
I1
sS'gods'
p2434
I1
sS'CANT'
p2435
I1
sS'farther'
p2436
I1
sS'victim'
p2437
I1
sS'Hanks'
p2438
I5
sS'CLASSIC'
p2439
I1
sS'similarities'
p2440
I1
sS'Hundreds'
p2441
I1
sS'spread'
p2442
I1
sS'board'
p2443
I3
sS'favor--STAY'
p2444
I1
sS'borefest'
p2445
I2
sS'boxed'
p2446
I1
sS'Morning'
p2447
I1
sS'arab'
p2448
I1
sS'Gerard'
p2449
I1
sS'progresses'
p2450
I1
sS'Wing'
p2451
I1
sS'Wind'
p2452
I1
sS'sparse'
p2453
I1
sS'night'
p2454
I17
sS'sends'
p2455
I2
sS'born'
p2456
I2
sS'Tina'
p2457
I1
sS'bore'
p2458
I5
sS'confusing'
p2459
I6
sS'humor'
p2460
I21
sS'TERRIBLE'
p2461
I4
sS'/'
p2462
I38
sS'Leo'
p2463
I7
sS'Tim'
p2464
I5
sS'filming'
p2465
I4
sS'indoctrination'
p2466
I1
sS'Let'
p2467
I15
sS'over-used'
p2468
I1
sS'Judea'
p2469
I1
sS'Kirsten'
p2470
I1
sS'School'
p2471
I1
sS'marketing'
p2472
I1
sS'prologue'
p2473
I1
sS'post'
p2474
I1
sS'sensationalist'
p2475
I1
sS'Farrelly'
p2476
I1
sS'Eileen'
p2477
I1
sS'diner'
p2478
I1
sS'months'
p2479
I2
sS'Mako'
p2480
I1
sS'sucked-its'
p2481
I1
sS'battlefield'
p2482
I1
sS'wasting'
p2483
I9
sS'pays'
p2484
I1
sS'bound'
p2485
I1
sS'ditto'
p2486
I1
sS'candlesticks'
p2487
I1
sS'exageration'
p2488
I1
sS'Judging'
p2489
I1
sS'lewd'
p2490
I1
sS'stumble'
p2491
I1
sS'unsucessful'
p2492
I1
sS'mutates'
p2493
I1
sS'Existentialism'
p2494
I2
sS'overblown'
p2495
I1
sS'fight'
p2496
I10
sS'Existentialist'
p2497
I1
sS'now-a-days'
p2498
I1
sS'way'
p2499
I78
sS'was'
p2500
I857
sS'war'
p2501
I9
sS'demeaned'
p2502
I1
sS'lowest'
p2503
I5
sS'morphus'
p2504
I1
sS'all-too-typical'
p2505
I1
sS'true'
p2506
I20
sS'absent'
p2507
I3
sS'high-quality'
p2508
I1
sS'maximum'
p2509
I1
sS'Morpheus'
p2510
I1
sS'Probably'
p2511
I2
sS'emotional'
p2512
I1
sS'-An'
p2513
I1
sS'Odd'
p2514
I1
sS'Poorly'
p2515
I1
sS'moore'
p2516
I1
sS'scandalous'
p2517
I1
sS'nudity'
p2518
I10
sS'abstract'
p2519
I1
sS'opportunistic'
p2520
I1
sS'evidence'
p2521
I2
sS'howling'
p2522
I1
sS'physical'
p2523
I3
sS'dying'
p2524
I3
sS'stake'
p2525
I1
sS'reality'
p2526
I10
sS'interested'
p2527
I8
sS'Ignorant'
p2528
I1
sS'test'
p2529
I1
sS'Shroomwoman'
p2530
I1
sS'minldess'
p2531
I2
sS'brothers'
p2532
I6
sS'SHOW'
p2533
I1
sS'Later'
p2534
I1
sS'convincing'
p2535
I6
sS'Massive'
p2536
I1
sS'troupe'
p2537
I1
sS'cheated'
p2538
I2
sS'pefect'
p2539
I1
sS'Mission'
p2540
I4
sS'together'
p2541
I14
sS'Saturday'
p2542
I1
sS'loyal'
p2543
I1
sS'cheater'
p2544
I1
sS'embarassment'
p2545
I1
sS'Kelley'
p2546
I1
sS'paced'
p2547
I2
sS'stick'
p2548
I11
sS'concept'
p2549
I11
sS'vampires'
p2550
I1
sS'dance'
p2551
I5
sS'-----Todd'
p2552
I1
sS'battle'
p2553
I6
sS'sucksbigmonkeynuts'
p2554
I1
sS'certainly'
p2555
I5
sS'absolutly'
p2556
I2
sS'flash'
p2557
I3
sS'Burt'
p2558
I1
sS'compensate'
p2559
I1
sS'terror'
p2560
I5
sS'donned'
p2561
I1
sS'brown'
p2562
I1
sS'supported'
p2563
I2
sS'Gentile'
p2564
I1
sS'seemingly'
p2565
I1
sS'Elaine'
p2566
I2
sS'airing'
p2567
I1
sS'blast'
p2568
I1
sS'Cubans'
p2569
I3
sS'Just'
p2570
I32
sS'presented'
p2571
I1
sS'turns'
p2572
I4
sS'gun'
p2573
I6
sS'gum'
p2574
I1
sS'WILL'
p2575
I1
sS'p'
p2576
I2
sS'soooo'
p2577
I3
sS'guitars'
p2578
I1
sS'guy'
p2579
I35
sS'George'
p2580
I7
sS'hte'
p2581
I1
sS'regret'
p2582
I3
sS'repetitive'
p2583
I1
sS'discover'
p2584
I2
sS'cost'
p2585
I4
sS'Orange'
p2586
I3
sS'Rice'
p2587
I1
sS'Shatner'
p2588
I1
sS'curse'
p2589
I1
sS'appear'
p2590
I4
sS'Exorcist"'
p2591
I1
sS'Ford'
p2592
I4
sS'Independence'
p2593
I3
sS'Imagine'
p2594
I2
sS'shared'
p2595
I1
sS'appeal'
p2596
I3
sS'supporting'
p2597
I3
sS'exercize'
p2598
I1
sS'Berry'
p2599
I5
sS'computer-animated'
p2600
I1
sS'English'
p2601
I2
sS'novelette'
p2602
I1
sS'appears'
p2603
I2
sS'change'
p2604
I3
sS'sending'
p2605
I2
sS'Dean'
p2606
I1
sS'Gangs'
p2607
I2
sS'trial'
p2608
I1
sS'usually'
p2609
I10
sS'Hellraiser'
p2610
I1
sS'Globet'
p2611
I1
sS'regardless'
p2612
I2
sS'extra'
p2613
I1
sS'Angry'
p2614
I1
sS'marked'
p2615
I2
sS'bullock'
p2616
I1
sS'embarrassing'
p2617
I2
sS'rarely'
p2618
I2
sS'BLOOOOOOODD'
p2619
I1
sS'prove'
p2620
I1
sS'Dies'
p2621
I1
sS'deicide'
p2622
I1
sS'masturbating'
p2623
I1
sS'live'
p2624
I4
sS'Fell'
p2625
I3
sS'schlock'
p2626
I1
sS'Phantasm'
p2627
I1
sS'F'
p2628
I3
sS'club'
p2629
I2
sS'Pitt'
p2630
I3
sS'clue'
p2631
I3
sS'organizations'
p2632
I1
sS'graphic'
p2633
I2
sS'SPONGEBOB'
p2634
I1
sS'car'
p2635
I8
sS'cap'
p2636
I1
sS'Down'
p2637
I2
sS'Lies'
p2638
I2
sS'can'
p2639
I179
sS'Die"'
p2640
I1
sS'Ohhhh'
p2641
I1
sS'Throughout'
p2642
I1
sS'Dyson'
p2643
I1
sS'Spade'
p2644
I1
sS'heart'
p2645
I8
sS'dedicated'
p2646
I1
sS'pauses'
p2647
I1
sS'CELLULOID'
p2648
I1
sS'topic'
p2649
I4
sS'heard'
p2650
I15
sS'Jagger'
p2651
I1
sS'clothing'
p2652
I2
sS'occur'
p2653
I2
sS'bankrupt'
p2654
I1
sS'cliche'
p2655
I6
sS'nihilism'
p2656
I1
sS'write'
p2657
I5
sS'Tasteless'
p2658
I1
sS'Deniro'
p2659
I1
sS'nonstop'
p2660
I1
sS'deteriorate'
p2661
I1
sS'armies'
p2662
I1
sS'product'
p2663
I3
sS'therby'
p2664
I1
sS'southern'
p2665
I1
sS'disgusted'
p2666
I1
sS'produce'
p2667
I1
sS'Martin'
p2668
I3
sS'court'
p2669
I1
sS'heroes'
p2670
I3
sS'remember'
p2671
I16
sS'whenever'
p2672
I1
sS'offend'
p2673
I2
sS'typical'
p2674
I9
sS'Sheer'
p2675
I1
sS'serving'
p2676
I1
sS'Jay'
p2677
I1
sS'indeed'
p2678
I3
sS'brain'
p2679
I11
sS'Trinity'
p2680
I4
sS'still'
p2681
I40
sS'Berrie'
p2682
I1
sS'acknowledge'
p2683
I1
sS'vicinity'
p2684
I1
sS'Posner'
p2685
I1
sS'forms'
p2686
I1
sS'dreadfully'
p2687
I1
sS'RC'
p2688
I2
sS'factual'
p2689
I1
sS'Broccoli'
p2690
I1
sS'Wait'
p2691
I4
sS'non'
p2692
I1
sS'halt'
p2693
I1
sS'naivity'
p2694
I1
sS'constrants'
p2695
I1
sS'introduce'
p2696
I1
sS'Looked'
p2697
I1
sS'1950'
p2698
I1
sS'half'
p2699
I24
sS'not'
p2700
I335
sS'now'
p2701
I36
sS'discuss'
p2702
I1
sS'nor'
p2703
I7
sS'wont'
p2704
I2
sS'down'
p2705
I39
sS'chuckled'
p2706
I1
sS'Skip'
p2707
I3
sS'Redford'
p2708
I1
sS'cannibalistic'
p2709
I1
sS'entirely'
p2710
I9
sS'em'
p2711
I2
sS'ei'
p2712
I1
sS'eh'
p2713
I1
sS'rapper'
p2714
I1
sS'eg'
p2715
I1
sS'directing'
p2716
I8
sS'yeah'
p2717
I4
sS'ex'
p2718
I1
sS'year'
p2719
I25
sS'Expected'
p2720
I1
sS'ubiquitous'
p2721
I1
sS'happen'
p2722
I16
sS'avoided'
p2723
I1
sS'amusement'
p2724
I2
sS'album'
p2725
I2
sS'shown'
p2726
I8
sS'accomplish'
p2727
I2
sS'space'
p2728
I5
sS'irony'
p2729
I1
sS'looking'
p2730
I12
sS'Norwegian'
p2731
I1
sS'opener'
p2732
I1
sS'makeing'
p2733
I3
sS'rational'
p2734
I1
sS'shows'
p2735
I8
sS'cars'
p2736
I9
sS'film-makers'
p2737
I1
sS'punks'
p2738
I1
sS'unwanted'
p2739
I1
sS'Afflick'
p2740
I1
sS'card'
p2741
I3
sS'care'
p2742
I30
sS'conufusing'
p2743
I1
sS'couldn'
p2744
I28
sS'19th-century'
p2745
I1
sS'british'
p2746
I1
sS'Pleeeze'
p2747
I1
sS'scarry'
p2748
I1
sS'GOBBLE'
p2749
I2
sS'promotion'
p2750
I1
sS'ANGUISH'
p2751
I1
sS'Elvis'
p2752
I3
sS'smelting'
p2753
I1
sS'Even'
p2754
I15
sS'halle'
p2755
I1
sS'There'
p2756
I60
sS'wimped'
p2757
I1
sS'yourself'
p2758
I18
sS'Till'
p2759
I2
sS'aagghhwwww'
p2760
I1
sS'pornographer'
p2761
I1
sS'Rates'
p2762
I1
sS'directly'
p2763
I2
sS'fi'
p2764
I2
sS'impossible'
p2765
I3
sS'ring'
p2766
I1
sS'Ever'
p2767
I1
sS'tomorrow'
p2768
I1
sS'sheep'
p2769
I1
sS'sheer'
p2770
I1
sS'checked'
p2771
I1
sS'Rightfully'
p2772
I1
sS'caught'
p2773
I2
sS'RUINED'
p2774
I1
sS'friend'
p2775
I9
sS'thar'
p2776
I1
sS'quasi-Ranger'
p2777
I1
sS'Omen'
p2778
I2
sS'mostly'
p2779
I3
sS'that'
p2780
I714
sS'resulted'
p2781
I1
sS'short'
p2782
I9
sS'guiltily'
p2783
I1
sS'than'
p2784
I91
sS'television'
p2785
I2
sS'optimism'
p2786
I2
sS'gobs'
p2787
I2
sS'apples'
p2788
I1
sS'fruits'
p2789
I1
sS'personatly'
p2790
I1
sS'MAKE'
p2791
I2
sS'lunches'
p2792
I1
sS'13th'
p2793
I3
sS'OUTSIDE'
p2794
I1
sS'Kidman'
p2795
I5
sS'distorted'
p2796
I2
sS'Trash'
p2797
I2
sS'slab'
p2798
I1
sS'Calf'
p2799
I1
sS'stoners'
p2800
I3
sS'Intellectually'
p2801
I1
sS'Okinawa'
p2802
I1
sS'equipment'
p2803
I2
sS'online'
p2804
I1
sS'objective'
p2805
I1
sS'ORIGINAL'
p2806
I1
sS'bitching'
p2807
I1
sS'begin'
p2808
I9
sS'THEATER'
p2809
I1
sS'Unlike'
p2810
I1
sS'price'
p2811
I2
sS'banks'
p2812
I1
sS'overemotes'
p2813
I1
sS'Whomever'
p2814
I1
sS'forever'
p2815
I5
sS'jurassic'
p2816
I1
sS'failure'
p2817
I4
sS'dream'
p2818
I5
sS'implications'
p2819
I2
sS'Armegeddon'
p2820
I1
sS'slaves'
p2821
I5
sS'professional'
p2822
I2
sS'typically'
p2823
I1
sS'Fifth'
p2824
I1
sS'Web'
p2825
I1
sS'terible'
p2826
I1
sS'rambling'
p2827
I1
sS'Character'
p2828
I1
sS'tearjerker'
p2829
I1
sS'Wes'
p2830
I2
sS'plaeasur'
p2831
I1
sS'Roll'
p2832
I1
sS'cheeseburgers'
p2833
I1
sS'realizing'
p2834
I1
sS'aint'
p2835
I2
sS'snack'
p2836
I1
sS'Worse'
p2837
I1
sS'Jeepers'
p2838
I1
sS'only'
p2839
I151
sS'Worst'
p2840
I9
sS'developed'
p2841
I3
sS'shrill'
p2842
I1
sS'Motionless'
p2843
I1
sS'mouthed'
p2844
I1
sS'truly'
p2845
I10
sS'loath'
p2846
I1
sS'cannot'
p2847
I18
sS'Barrymore'
p2848
I4
sS'leather'
p2849
I1
sS'seldom'
p2850
I1
sS'imbecile'
p2851
I1
sS'ambling'
p2852
I1
sS'losers'
p2853
I2
sS'Allen'
p2854
I5
sS'Screenit'
p2855
I1
sS'husband'
p2856
I11
sS'burst'
p2857
I1
sS'physically'
p2858
I1
sS'asleep'
p2859
I29
sS'flatly'
p2860
I1
sS'zigging'
p2861
I1
sS'sport'
p2862
I1
sS'palette'
p2863
I1
sS'ROOM'
p2864
I1
sS'tackling'
p2865
I1
sS'hybrid'
p2866
I1
sS'justifies'
p2867
I1
sS'3'
p2868
I21
sS'Tappy'
p2869
I2
sS'between'
p2870
I12
sS'import'
p2871
I1
sS'notice'
p2872
I2
sS'prettiest'
p2873
I1
sS'Were'
p2874
I1
sS'comeback'
p2875
I2
sS'talented'
p2876
I5
sS'Give'
p2877
I4
sS'THINKING'
p2878
I1
sS'Primary'
p2879
I1
sS'comes'
p2880
I18
sS'Death'
p2881
I1
sS'Jeremy'
p2882
I1
sS'ILL'
p2883
I1
sS'disgrace'
p2884
I3
sS'Gigolos'
p2885
I1
sS'brats'
p2886
I1
sS'olives'
p2887
I1
sS'punishes'
p2888
I1
sS'Pain'
p2889
I1
sS'WORSE'
p2890
I1
sS'cares'
p2891
I4
sS'informed'
p2892
I1
sS'markedly'
p2893
I1
sS'jerks'
p2894
I1
sS'Dentist'
p2895
I1
sS'WORST'
p2896
I6
sS'mindless--Anchorman'
p2897
I1
sS'proven'
p2898
I1
sS'rubs'
p2899
I1
sS'betcha'
p2900
I1
sS'postpubescent'
p2901
I1
sS'countless'
p2902
I1
sS'shockingly-inappropirate'
p2903
I2
sS'developing'
p2904
I4
sS'these'
p2905
I34
sS'wealthiest'
p2906
I1
sS'TYPO'
p2907
I1
sS'taking'
p2908
I6
sS'coolest'
p2909
I2
sS'Goldfinger'
p2910
I1
sS'GNR'
p2911
I1
sS'incomprehsible'
p2912
I1
sS'Dick'
p2913
I1
sS'Better'
p2914
I1
sS'WOLVERINES'
p2915
I1
sS'bias'
p2916
I1
sS'beaver'
p2917
I1
sS'awhile'
p2918
I1
sS'develop'
p2919
I2
sS'Complete'
p2920
I5
sS'media'
p2921
I1
sS'3-D'
p2922
I1
sS'ya'
p2923
I4
sS'poetic'
p2924
I1
sS'Witch'
p2925
I9
sS'finish'
p2926
I3
sS'sleazest'
p2927
I1
sS'enjoyment'
p2928
I1
sS'oddments'
p2929
I1
sS'non-sense'
p2930
I1
sS'respected'
p2931
I1
sS'tradition'
p2932
I1
sS'mentally'
p2933
I2
sS'complained'
p2934
I1
sS'theater'
p2935
I19
sS'bondage'
p2936
I1
sS'charges'
p2937
I1
sS'charger'
p2938
I1
sS'severe'
p2939
I1
sS'breeze'
p2940
I1
sS'exagerations'
p2941
I1
sS'vomit'
p2942
I4
sS'Nazi'
p2943
I1
sS'charged'
p2944
I1
sS'Service'
p2945
I1
sS'armour'
p2946
I1
sS'BACK'
p2947
I2
sS'valuable'
p2948
I3
sS'shouts'
p2949
I1
sS'chick-flickism'
p2950
I1
sS'touch'
p2951
I1
sS'death'
p2952
I13
sS'Her'
p2953
I4
sS'thinking'
p2954
I23
sS'senseless'
p2955
I3
sS'schmuks'
p2956
I1
sS'improvement'
p2957
I1
sS'watchable'
p2958
I4
sS'treatment'
p2959
I2
sS'j-Lo'
p2960
I1
sS'TONGUE'
p2961
I1
sS'bordom'
p2962
I1
sS'real'
p2963
I39
sS'spectacular'
p2964
I4
sS'overused'
p2965
I3
sS'read'
p2966
I18
sS'discontinue'
p2967
I1
sS'gonna'
p2968
I7
sS'ditz'
p2969
I1
sS'Project'
p2970
I4
sS'listening'
p2971
I2
sS'symbolism'
p2972
I1
sS'stunt'
p2973
I1
sS'execution'
p2974
I2
sS'lady'
p2975
I7
sS'ruled'
p2976
I2
sS'Shot'
p2977
I1
sS'Show'
p2978
I4
sS'postcard'
p2979
I1
sS't'
p2980
I529
sS'occasions'
p2981
I1
sS'-dastardly'
p2982
I1
sS'good-heartedness'
p2983
I1
sS'Before'
p2984
I4
sS'exposed'
p2985
I1
sS'hacks'
p2986
I1
sS'Alfred'
p2987
I1
sS'Mars'
p2988
I1
sS'Mary'
p2989
I4
sS'passions'
p2990
I1
sS'conservative'
p2991
I1
sS'ethos'
p2992
I1
sS'Hunt'
p2993
I8
sS'assembly'
p2994
I1
sS'JUST'
p2995
I3
sS'Comics'
p2996
I1
sS'credits'
p2997
I4
sS'starship'
p2998
I1
sS'sixty'
p2999
I1
sS'leftover'
p3000
I1
sS'sloth-like'
p3001
I1
sS'exciting'
p3002
I7
sS'Leonardo'
p3003
I1
sS'throw'
p3004
I8
sS'REFUGE'
p3005
I1
sS'comparison'
p3006
I5
sS'central'
p3007
I1
sS'lamely'
p3008
I1
sS'journey'
p3009
I1
sS'wolf'
p3010
I1
sS'greatly'
p3011
I2
sS'disassociated'
p3012
I1
sS'badbadbadbadbad'
p3013
I1
sS'deranged'
p3014
I2
sS'heavy'
p3015
I1
sS'Story'
p3016
I5
sS'inclusion'
p3017
I1
sS'Memories'
p3018
I1
sS'Add'
p3019
I1
sS'Storm'
p3020
I1
sS'elementary'
p3021
I1
sS'nowadays'
p3022
I2
sS'your'
p3023
I86
sS'stare'
p3024
I2
sS'log'
p3025
I1
sS'area'
p3026
I1
sS'aren'
p3027
I7
sS'assumed'
p3028
I2
sS'lol'
p3029
I3
sS'start'
p3030
I12
sS'cats'
p3031
I1
sS'low'
p3032
I15
sS'stars'
p3033
I23
sS'Kiss'
p3034
I1
sS'ooooohhhhh'
p3035
I1
sS'drains'
p3036
I1
sS'J'
p3037
I2
sS'seagal'
p3038
I1
sS'manipulative'
p3039
I2
sS'recoil'
p3040
I1
sS'McGregor'
p3041
I1
sS'trying'
p3042
I23
sS'copied'
p3043
I1
sS'Ummmmm'
p3044
I1
sS'hire'
p3045
I5
sS'fraud'
p3046
I1
sS'notibly'
p3047
I1
sS'bucket'
p3048
I1
sS'DOESN'
p3049
I1
sS'freddy'
p3050
I1
sS'jackel'
p3051
I1
sS'one-star'
p3052
I2
sS'beliefs'
p3053
I1
sS'describe'
p3054
I8
sS'moved'
p3055
I1
sS'sales'
p3056
I1
sS'moves'
p3057
I1
sS'Judas'
p3058
I1
sS'Idol'
p3059
I1
sS'Jake'
p3060
I1
sS'Patter'
p3061
I1
sS'credibility'
p3062
I1
sS'elemental'
p3063
I1
sS'cinematography'
p3064
I4
sS'hurtles'
p3065
I1
sS'valid'
p3066
I1
sS'milking'
p3067
I1
sS'you'
p3068
I311
sS'forcing'
p3069
I2
sS'poor'
p3070
I12
sS'poop'
p3071
I6
sS'60s'
p3072
I3
sS'Fields'
p3073
I1
sS'THERE'
p3074
I2
sS'drift'
p3075
I1
sS'computerized'
p3076
I1
sS'unattractive'
p3077
I2
sS'pooh'
p3078
I1
sS'airheads'
p3079
I2
sS'pool'
p3080
I1
sS'HISTORY'
p3081
I1
sS'pedophyllic'
p3082
I1
sS'freshmoric'
p3083
I1
sS'unnatural'
p3084
I1
sS'overseas'
p3085
I2
sS'maturity'
p3086
I1
sS'surrounded'
p3087
I1
sS'Hobbit'
p3088
I1
sS'pointing'
p3089
I1
sS'Take'
p3090
I2
sS'cameron'
p3091
I2
sS'Capra'
p3092
I1
sS'religious'
p3093
I4
sS'dreadful'
p3094
I6
sS'Elly'
p3095
I2
sS'Pilate'
p3096
I1
sS'patently'
p3097
I1
sS'very'
p3098
I97
sS'horror'
p3099
I51
sS'skit'
p3100
I1
sS'woodchipper'
p3101
I1
sS'decide'
p3102
I2
sS'litterally'
p3103
I1
sS'Rammstein'
p3104
I1
sS'--'
p3105
I20
sS'-5'
p3106
I1
sS'crummiest'
p3107
I1
sS'Breakfast'
p3108
I1
sS'GREAT'
p3109
I2
sS'None'
p3110
I2
sS'Grandmother'
p3111
I1
sS'Robe'
p3112
I1
sS'General'
p3113
I2
sS'chuckle'
p3114
I1
sS'conscience'
p3115
I1
sS'Patient'
p3116
I1
sS'Tried'
p3117
I2
sS'witnessed'
p3118
I2
sS'zealots'
p3119
I1
sS'emotions'
p3120
I4
sS'UGLY'
p3121
I1
sS'apologized'
p3122
I1
sS'learned'
p3123
I3
sS'Totally'
p3124
I5
sS'edited'
p3125
I1
sS'loose'
p3126
I4
sS'DRIVER'
p3127
I1
sS'tracks'
p3128
I1
sS'excess'
p3129
I1
sS'strong'
p3130
I2
sS'SAID'
p3131
I2
sS'Jews'
p3132
I2
sS'ahead'
p3133
I1
sS'creepy'
p3134
I2
sS'over-hyped'
p3135
I2
sS'soldier'
p3136
I2
sS'amount'
p3137
I5
sS'advertising'
p3138
I1
sS'beatle'
p3139
I1
sS'Joan'
p3140
I1
sS'UNFUNNY'
p3141
I1
sS'family'
p3142
I10
sS'put'
p3143
I27
sS'fourth-rate'
p3144
I1
sS'Animal'
p3145
I2
sS'reallly'
p3146
I1
sS'story-'
p3147
I1
sS'flaws'
p3148
I2
sS'takes'
p3149
I11
sS'contains'
p3150
I1
sS'praised'
p3151
I2
sS'heroic'
p3152
I1
sS'taken'
p3153
I6
sS'pixar'
p3154
I1
sS'yuck'
p3155
I2
sS'site'
p3156
I2
sS'excuse'
p3157
I13
sS'Sh'
p3158
I1
sS'So'
p3159
I22
sS'style-over-substance'
p3160
I1
sS'mish-mash'
p3161
I1
sS'rips'
p3162
I1
sS'Believe'
p3163
I2
sS'SS'
p3164
I1
sS'Matix'
p3165
I1
sS'offended'
p3166
I4
sS'SH'
p3167
I2
sS'SO'
p3168
I5
sS'yemen'
p3169
I1
sS'history'
p3170
I22
sS'18th-'
p3171
I1
sS'boycott'
p3172
I1
sS'claimed'
p3173
I2
sS'CAN'
p3174
I2
sS'lacks'
p3175
I4
sS'firmly'
p3176
I1
sS'bowmp-ba-bowmp'
p3177
I1
sS'Federation'
p3178
I1
sS'terribly'
p3179
I6
sS'chops'
p3180
I1
sS'ACTING'
p3181
I2
sS'stayed'
p3182
I4
sS'Oedipus'
p3183
I1
sS'punked'
p3184
I1
sS'cloying'
p3185
I1
sS'fr'
p3186
I1
sS'tried'
p3187
I19
sS'begining'
p3188
I2
sS'fx'
p3189
I1
sS'sneak'
p3190
I1
sS'idiocy'
p3191
I1
sS'tries'
p3192
I12
sS'Clowns'
p3193
I1
sS'Daisy'
p3194
I1
sS'gasp'
p3195
I1
sS'Puuuuleeeze'
p3196
I1
sS'nothinig'
p3197
I1
sS'a'
p3198
I1349
sS'contrived'
p3199
I6
sS'humbug'
p3200
I1
sS'criticize'
p3201
I1
sS'Mexico'
p3202
I4
sS'somebodies'
p3203
I1
sS'Deep'
p3204
I3
sS'sodomy'
p3205
I1
sS'ego'
p3206
I1
sS'comatose'
p3207
I1
sS'frightning'
p3208
I1
sS'Plus'
p3209
I5
sS'egg'
p3210
I1
sS'Film'
p3211
I2
sS'chicks'
p3212
I2
sS'help'
p3213
I6
sS'torturous'
p3214
I1
sS'rated-R'
p3215
I1
sS'sooo'
p3216
I2
sS'soon'
p3217
I3
sS'held'
p3218
I2
sS'committee'
p3219
I1
sS'hell'
p3220
I21
sS'ejects'
p3221
I1
sS'horrifficly'
p3222
I1
sS'highlighted'
p3223
I1
sS'actually'
p3224
I52
sS'relate'
p3225
I2
sS'rabble'
p3226
I2
sS'exteremly'
p3227
I1
sS'fool'
p3228
I9
sS'evening'
p3229
I1
sS'yo'
p3230
I1
sS'food'
p3231
I2
sS'PG-13'
p3232
I3
sS'moaning'
p3233
I1
sS'foot'
p3234
I2
sS'Punny'
p3235
I1
sS'desperately'
p3236
I3
sS'erection'
p3237
I1
sS'SFX'
p3238
I1
sS'fully'
p3239
I3
sS'Aliens'
p3240
I1
sS'payed'
p3241
I1
sS'stopped'
p3242
I3
sS'Liam'
p3243
I3
sS'obligated'
p3244
I1
sS'trailer'
p3245
I9
sS'referred'
p3246
I1
sS'flashbacks'
p3247
I1
sS'End'
p3248
I1
sS'mockumentary'
p3249
I1
sS'wacky'
p3250
I1
sS'democrat'
p3251
I2
sS'bickering'
p3252
I1
sS'beyond'
p3253
I14
sS'event'
p3254
I3
sS'dominates'
p3255
I1
sS'MATRIX'
p3256
I1
sS'miss'
p3257
I1
sS'since'
p3258
I21
sS'douglas'
p3259
I1
sS'half-way'
p3260
I1
sS'Godawful'
p3261
I1
sS'fountain'
p3262
I1
sS'7'
p3263
I2
sS'issue'
p3264
I5
sS'ass'
p3265
I12
sS'scrips'
p3266
I1
sS'pun'
p3267
I1
sS'drink'
p3268
I1
sS'dung'
p3269
I1
sS'houses'
p3270
I1
sS'reason'
p3271
I25
sS'base'
p3272
I3
sS'dire'
p3273
I1
sS'ask'
p3274
I7
sS'infantilizing'
p3275
I1
sS'bash'
p3276
I1
sS'Fantastic'
p3277
I2
sS'bring'
p3278
I5
sS'launch'
p3279
I1
sS'persists'
p3280
I1
sS'terrible'
p3281
I57
sS'cheering'
p3282
I1
sS'american'
p3283
I3
sS'expecting'
p3284
I5
sS'Kevin'
p3285
I8
sS'undergo'
p3286
I1
sS'Panther'
p3287
I1
sS'knocking'
p3288
I3
sS'non-Whites'
p3289
I1
sS'unexpected'
p3290
I1
sS'crapy'
p3291
I1
sS'rahhhh'
p3292
I1
sS'horse'
p3293
I2
sS'airborne'
p3294
I1
sS'Zombie'
p3295
I1
sS'wonderful'
p3296
I4
sS'Delta'
p3297
I1
sS'hundred'
p3298
I2
sS'selling'
p3299
I2
sS'bowel'
p3300
I1
sS'cartridges'
p3301
I1
sS'off'
p3302
I67
sS'grocery'
p3303
I1
sS'performers'
p3304
I1
sS'wrasslin'
p3305
I1
sS'Spacey'
p3306
I3
sS'toward'
p3307
I1
sS'wasnt'
p3308
I6
sS'God'
p3309
I17
sS'overstate'
p3310
I1
sS'Douglas'
p3311
I1
sS'Penn'
p3312
I2
sS'blissful'
p3313
I1
sS'sensual'
p3314
I1
sS'showcased'
p3315
I1
sS'lie'
p3316
I2
sS'speaking'
p3317
I1
sS'slow-going'
p3318
I1
sS'Price'
p3319
I1
sS'camouflage'
p3320
I2
sS'catchphrases'
p3321
I1
sS'teen-style'
p3322
I1
sS'outsmarts'
p3323
I1
sS'Sandler'
p3324
I21
sS'With'
p3325
I10
sS'towards'
p3326
I3
sS'threatening'
p3327
I1
sS'freddie'
p3328
I1
sS'eaten'
p3329
I2
sS'The'
p3330
I418
sS'salary'
p3331
I1
sS'Johny'
p3332
I1
sS'performances'
p3333
I4
sS'clear'
p3334
I1
sS'popularity'
p3335
I2
sS'outhouse'
p3336
I1
sS'clean'
p3337
I7
sS'usual'
p3338
I7
sS'tubes'
p3339
I1
sS'hips'
p3340
I1
sS'phenomenon'
p3341
I1
sS'hovered'
p3342
I1
sS'celebrities'
p3343
I1
sS'netherworld'
p3344
I1
sS'hyped'
p3345
I1
sS'ABSOLUTE'
p3346
I1
sS'reminiscent'
p3347
I3
sS'northern'
p3348
I1
sS'justice'
p3349
I2
sS'less'
p3350
I17
sS'you-know-who'
p3351
I1
sS'French'
p3352
I1
sS'moments'
p3353
I15
sS'Traffic'
p3354
I1
sS'pretty'
p3355
I22
sS'ten-minute'
p3356
I1
sS'Michelle'
p3357
I1
sS'dominant'
p3358
I1
sS'trees'
p3359
I1
sS'Crystal'
p3360
I3
sS'While'
p3361
I12
sS'basement'
p3362
I1
sS'boils'
p3363
I1
sS'during'
p3364
I16
sS'fluff'
p3365
I3
sS'nnnooooo'
p3366
I1
sS'hype'
p3367
I17
sS'witht'
p3368
I1
sS'ixnay'
p3369
I1
sS'seventeen'
p3370
I1
sS'throwing'
p3371
I3
sS'unpublished'
p3372
I1
sS'Jekyl'
p3373
I1
sS'Roses'
p3374
I1
sS'descriptions'
p3375
I2
sS'Mama'
p3376
I1
sS'close'
p3377
I4
sS'locals'
p3378
I1
sS'cheapshot'
p3379
I1
sS'horrid'
p3380
I11
sS'wou'
p3381
I1
sS'pictures'
p3382
I1
sS'wow'
p3383
I2
sS'Blair'
p3384
I13
sS'Park'
p3385
I4
sS'Plz'
p3386
I1
sS'won'
p3387
I21
sS'Parr'
p3388
I2
sS'probably'
p3389
I20
sS'conditions'
p3390
I1
sS'pictured'
p3391
I1
sS'missing'
p3392
I2
sS'saggin'
p3393
I1
sS'Arlene'
p3394
I1
sS'genre'
p3395
I7
sS'work-'
p3396
I1
sS'both'
p3397
I14
sS'fiance'
p3398
I2
sS'Fish'
p3399
I1
sS'minorities'
p3400
I1
sS'Guest'
p3401
I1
sS'phonies'
p3402
I1
sS'forgotten'
p3403
I2
sS'intrests'
p3404
I1
sS'liked'
p3405
I24
sS'headed'
p3406
I1
sS'puritan'
p3407
I1
sS'Panama'
p3408
I1
sS'whatever'
p3409
I13
sS'storyline-'
p3410
I1
sS'unfolded'
p3411
I1
sS'likes'
p3412
I6
sS'Way'
p3413
I4
sS'Was'
p3414
I7
sS'War'
p3415
I5
sS'primetime'
p3416
I1
sS'described'
p3417
I1
sS'"Sack'
p3418
I1
sS'inadmissible'
p3419
I1
sS'celluloid'
p3420
I2
sS'Most'
p3421
I6
sS'describes'
p3422
I1
sS'damn'
p3423
I11
sS'coarse'
p3424
I1
sS'mutiny'
p3425
I1
sS'Royale'
p3426
I1
sS'threaten'
p3427
I1
sS'empty'
p3428
I5
sS'Women'
p3429
I1
sS'budgeted'
p3430
I1
sS'dialogue'
p3431
I18
sS'lived'
p3432
I2
sS'partly'
p3433
I1
sS'Especially'
p3434
I1
sS'crack'
p3435
I3
sS'else'
p3436
I26
sS'Corpses'
p3437
I1
sS'recalled'
p3438
I1
sS'compromised'
p3439
I1
sS'folklore'
p3440
I1
sS'Pick'
p3441
I1
sS'Kubrick'
p3442
I4
sS'intriguing'
p3443
I2
sS'Dont'
p3444
I4
sS'Garner'
p3445
I1
sS'pace'
p3446
I1
sS'while'
p3447
I31
sS'accidently'
p3448
I2
sS'smart'
p3449
I2
sS'RECALL'
p3450
I1
sS'animated'
p3451
I3
sS'loop'
p3452
I1
sS'pack'
p3453
I2
sS'LOWER'
p3454
I1
sS'voters'
p3455
I1
sS'Furthermore'
p3456
I2
sS'reads'
p3457
I1
sS'terminator'
p3458
I2
sS'Got'
p3459
I1
sS'ready'
p3460
I4
sS'lacklustre'
p3461
I1
sS'windowdressing'
p3462
I1
sS'Cosby'
p3463
I1
sS'LITTLE'
p3464
I1
sS'shat'
p3465
I2
sS'grant'
p3466
I1
sS'FAR'
p3467
I3
sS'belong'
p3468
I1
sS'FAT'
p3469
I1
sS'used'
p3470
I16
sS'ratings'
p3471
I1
sS'banter'
p3472
I1
sS'blair'
p3473
I3
sS'Clive'
p3474
I1
sS'Movies'
p3475
I1
sS'000'
p3476
I4
sS'uses'
p3477
I2
sS'decency'
p3478
I1
sS'jour'
p3479
I1
sS'Jolie'
p3480
I6
sS'justifiable'
p3481
I1
sS'overated'
p3482
I2
sS'older'
p3483
I3
sS'grind'
p3484
I2
sS'clears'
p3485
I1
sS'Girl'
p3486
I2
sS'Dennis'
p3487
I1
sS'appalled'
p3488
I1
sS'grossly'
p3489
I4
sS'Fans'
p3490
I2
sS'DON'
p3491
I4
sS'Zellwegger'
p3492
I2
sS'Tobey'
p3493
I1
sS'retirement'
p3494
I1
sS'Casting'
p3495
I1
sS'$'
p3496
I22
sS'decayed'
p3497
I1
sS'throats'
p3498
I1
sS'Predictable'
p3499
I2
sS'soooooo'
p3500
I1
sS'remaining'
p3501
I2
sS'useless'
p3502
I7
sS'filmset'
p3503
I1
sS'lacking'
p3504
I3
sS'oversings'
p3505
I1
sS'showing'
p3506
I9
sS'Billy'
p3507
I5
sS'game'
p3508
I8
sS'damage'
p3509
I2
sS'Geniuses'
p3510
I1
sS'DY-NO-MITE'
p3511
I1
sS'translucent'
p3512
I1
sS'Pirates'
p3513
I2
sS'signal'
p3514
I1
sS'dialouge'
p3515
I3
sS'manifest'
p3516
I1
sS'dreck'
p3517
I7
sS'popular'
p3518
I4
sS'adulterous'
p3519
I1
sS'Little'
p3520
I5
sS'Illogical'
p3521
I1
sS'Guinness'
p3522
I1
sS'some'
p3523
I111
sS'CORPSES'
p3524
I1
sS'WIERD'
p3525
I1
sS'Dangerfield'
p3526
I1
sS'trendy'
p3527
I1
sS'HMS'
p3528
I1
sS'delivered'
p3529
I1
sS'describing'
p3530
I1
sS'EEEEWWWWW'
p3531
I1
sS'spouting'
p3532
I1
sS'AMC'
p3533
I1
sS'providence'
p3534
I1
sS'Odie'
p3535
I1
sS'slapstick'
p3536
I1
sS'minimal'
p3537
I1
sS'akward'
p3538
I1
sS'everybody'
p3539
I1
sS'eating'
p3540
I4
sS'Neill'
p3541
I1
sS'Bill'
p3542
I7
sS'step'
p3543
I2
sS'negatives'
p3544
I1
sS'become'
p3545
I7
sS'plots'
p3546
I4
sS'Vorhees'
p3547
I3
sS'smothered'
p3548
I1
sS'faith'
p3549
I2
sS'Taylor'
p3550
I1
sS'wouldnt'
p3551
I2
sS'Catherine'
p3552
I1
sS'Lion'
p3553
I1
sS'Looks'
p3554
I1
sS'Quake'
p3555
I1
sS'classics'
p3556
I1
sS'shiny'
p3557
I2
sS'miracles'
p3558
I1
sS'seeing'
p3559
I27
sS'dude'
p3560
I2
sS'within'
p3561
I4
sS'nonsense'
p3562
I5
sS'taillights'
p3563
I1
sS'Their'
p3564
I1
sS'smelly'
p3565
I1
sS'Norman'
p3566
I1
sS'Cancun'
p3567
I1
sS'placing'
p3568
I1
sS'Portman'
p3569
I1
sS'Smashmouth'
p3570
I1
sS'spawning'
p3571
I1
sS'SINGING'
p3572
I1
sS'bleedin'
p3573
I1
sS'gratutious'
p3574
I2
sS'himself'
p3575
I10
sS'properly'
p3576
I2
sS'amateurish'
p3577
I1
sS'reel'
p3578
I1
sS'dull'
p3579
I18
sS'grams'
p3580
I1
sS'Irish'
p3581
I1
sS'skull'
p3582
I1
sS'Murray'
p3583
I2
sS'similar'
p3584
I1
sS'adults'
p3585
I2
sS'doesn'
p3586
I28
sS'To'
p3587
I14
sS'Th'
p3588
I1
sS'cotton'
p3589
I1
sS'TV'
p3590
I14
sS'A-'
p3591
I1
sS'rewriting'
p3592
I1
sS'TO'
p3593
I2
sS'politicians'
p3594
I1
sS'recognition'
p3595
I1
sS'Rikki'
p3596
I1
sS'Polak'
p3597
I1
sS'manhattan'
p3598
I2
sS'T2'
p3599
I4
sS'T3'
p3600
I2
sS'T1'
p3601
I1
sS'Flux'
p3602
I1
sS'AS'
p3603
I1
sS'AT'
p3604
I2
sS'smiled'
p3605
I1
sS'Documentary'
p3606
I1
sS'Simpson'
p3607
I1
sS'e'
p3608
I2
sS'practically'
p3609
I1
sS'Ah'
p3610
I1
sS'FahrenHype'
p3611
I1
sS'Al'
p3612
I1
sS'An'
p3613
I12
sS'depth'
p3614
I4
sS'At'
p3615
I7
sS'bribe'
p3616
I1
sS'underrated'
p3617
I1
sS'Apparently'
p3618
I2
sS'Perfect'
p3619
I1
sS'Hayek'
p3620
I1
sS'psyche'
p3621
I1
sS'Lara'
p3622
I1
sS'Gia'
p3623
I1
sS'go'
p3624
I47
sS'psycho'
p3625
I1
sS'Painful'
p3626
I2
sS'birthplace'
p3627
I1
sS'Eminem'
p3628
I1
sS'does'
p3629
I44
sS'Words'
p3630
I1
sS'Not'
p3631
I41
sS'Now'
p3632
I8
sS'friendly'
p3633
I1
sS'Nor'
p3634
I1
sS'murderous'
p3635
I2
sS'Typical'
p3636
I1
sS'telling'
p3637
I5
sS'yourselves'
p3638
I1
sS'escepially'
p3639
I1
sS'Rebels'
p3640
I1
sS'Charlotte'
p3641
I1
sS'believethese'
p3642
I1
sS'stiff'
p3643
I3
sS'michael'
p3644
I2
sS'watered'
p3645
I1
sS'deformed'
p3646
I1
sS'skipped'
p3647
I1
sS'verdict'
p3648
I1
sS'Biggs'
p3649
I4
sS'innately'
p3650
I1
sS'booty'
p3651
I1
sS'bleechhh'
p3652
I1
sS'boots'
p3653
I2
sS'waking'
p3654
I1
sS'jump'
p3655
I3
sS'Planner'
p3656
I1
sS'SEAN'
p3657
I1
sS'pornography'
p3658
I2
sS'Aresnic'
p3659
I1
sS'poke'
p3660
I1
sS'plays'
p3661
I16
sS'paintings'
p3662
I1
sS'wallet'
p3663
I2
sS'marketed'
p3664
I1
sS'vampire'
p3665
I4
sS'cell'
p3666
I1
sS'Boys'
p3667
I3
sS'rotten'
p3668
I2
sS'experiment'
p3669
I1
sS'rotted'
p3670
I1
sS';'
p3671
I31
sS'America'
p3672
I10
sS'charactor'
p3673
I2
sS'saps'
p3674
I1
sS'hatered'
p3675
I1
sS'focuses'
p3676
I1
sS'commercial'
p3677
I1
sS'following'
p3678
I3
sS'Green'
p3679
I3
sS'Miserable'
p3680
I1
sS'Deplorable'
p3681
I1
sS'kidnapped'
p3682
I1
sS'unimaginativly'
p3683
I1
sS'Ahh'
p3684
I2
sS'Back'
p3685
I1
sS'paranoid'
p3686
I1
sS'Usual'
p3687
I1
sS'Arabia'
p3688
I2
sS'Utter'
p3689
I1
sS'Wonder'
p3690
I1
sS'terrorizing'
p3691
I1
sS'lords'
p3692
I1
sS'win'
p3693
I5
sS'manage'
p3694
I1
sS'wit'
p3695
I5
sS'stupider'
p3696
I1
sS'striptease'
p3697
I1
sS'gimmick'
p3698
I1
sS'singing'
p3699
I6
sS'HIMSELF'
p3700
I2
sS'crap'
p3701
I59
sS'GARBAGE'
p3702
I1
sS'Dumber'
p3703
I1
sS'adequacy'
p3704
I1
sS'carzy'
p3705
I1
sS'camera'
p3706
I14
sS'WORDS'
p3707
I2
sS'vehicle'
p3708
I2
sS'started'
p3709
I16
sS'becomes'
p3710
I2
sS'missile'
p3711
I1
sS'appointed'
p3712
I1
sS'waving'
p3713
I1
sS'salad'
p3714
I2
sS'Feardotcom'
p3715
I1
sS'ride'
p3716
I4
sS'Generation'
p3717
I2
sS'crossed'
p3718
I2
sS'meet'
p3719
I3
sS'Nevada'
p3720
I1
sS'averages'
p3721
I1
sS'control'
p3722
I6
sS'Zahn'
p3723
I1
sS'halloween'
p3724
I2
sS'shrewlike'
p3725
I1
sS'TOO'
p3726
I4
sS'hit'
p3727
I12
sS'Lovely'
p3728
I1
sS'Charmed'
p3729
I1
sS'HIS'
p3730
I2
sS'Godfather'
p3731
I1
sS'Scooby'
p3732
I1
sS'Beast'
p3733
I1
sS'Gore'
p3734
I1
sS'Laestat'
p3735
I1
sS'Spurlock'
p3736
I2
sS'fare'
p3737
I4
sS'role-playing'
p3738
I1
sS'British'
p3739
I5
sS'Roman'
p3740
I5
sS'overwhelmingly'
p3741
I1
sS'Shrek'
p3742
I1
sS'clooney'
p3743
I1
sS'miscast'
p3744
I2
sS'famous'
p3745
I3
sS'dinos'
p3746
I1
sS'SAME'
p3747
I2
sS'crazed'
p3748
I1
sS'agenda'
p3749
I1
sS'womanizer'
p3750
I1
sS'Wilson'
p3751
I1
sS'Smith'
p3752
I6
sS'sperm'
p3753
I1
sS'gunman'
p3754
I1
sS'costume'
p3755
I2
sS'cruise'
p3756
I2
sS'mentioned'
p3757
I1
sS'Final'
p3758
I2
sS'helicopters'
p3759
I1
sS'pecent'
p3760
I1
sS'masses'
p3761
I2
sS'LBJ'
p3762
I1
sS'Brother'
p3763
I1
sS'Loser'
p3764
I1
sS'hands'
p3765
I3
sS'front'
p3766
I3
sS'slide'
p3767
I1
sS'mode'
p3768
I1
sS'Reservior'
p3769
I1
sS'wrose'
p3770
I1
sS'700'
p3771
I1
sS'investigative'
p3772
I1
sS'flop-sweat'
p3773
I1
sS'special'
p3774
I24
sS'1999-film'
p3775
I1
sS'entertainment'
p3776
I14
sS'armor'
p3777
I1
sS'confess'
p3778
I1
sS'fathom'
p3779
I1
sS'Juliette'
p3780
I1
sS'may'
p3781
I28
sS'X-men'
p3782
I1
sS'cause'
p3783
I5
sS'trashy'
p3784
I1
sS'70s'
p3785
I1
sS'completely'
p3786
I25
sS'wantabe'
p3787
I1
sS'1983'
p3788
I1
sS'hostile'
p3789
I2
sS'route'
p3790
I1
sS'Owen'
p3791
I1
sS'times'
p3792
I22
sS'shred'
p3793
I1
sS'wading'
p3794
I1
sS'projectile'
p3795
I1
sS'shrek'
p3796
I2
sS'mankind'
p3797
I1
sS'slavishly'
p3798
I1
sS'Lame'
p3799
I4
sS'powerful'
p3800
I2
sS'Lazenby'
p3801
I1
sS'Sophomoric'
p3802
I1
sS'quality'
p3803
I8
sS'Lamest'
p3804
I1
sS'attack'
p3805
I3
sS'Deuce'
p3806
I1
sS'final'
p3807
I6
sS'2-3'
p3808
I1
sS'exactly'
p3809
I7
sS'lists'
p3810
I1
sS'R'
p3811
I1
sS'herself'
p3812
I4
sS'Channing'
p3813
I1
sS'thrashing'
p3814
I1
sS'bed'
p3815
I1
sS'cartoonish'
p3816
I1
sS'Series'
p3817
I1
sS'Shire'
p3818
I3
sS'yawner'
p3819
I1
sS'bet'
p3820
I1
sS'undoubtly'
p3821
I1
sS'bordem'
p3822
I1
sS'villains'
p3823
I1
sS'Richard'
p3824
I1
sS'horrors'
p3825
I2
sS'Other'
p3826
I2
sS'disapointment'
p3827
I2
sS'need'
p3828
I21
sS'Patterson'
p3829
I1
sS'Batman'
p3830
I1
sS'able'
p3831
I7
sS'battles'
p3832
I1
sS'instance'
p3833
I2
sS're-made'
p3834
I2
sS'Graphics'
p3835
I1
sS'truck'
p3836
I1
sS'parenting'
p3837
I1
sS'awe'
p3838
I1
sS'cellphone'
p3839
I1
sS'stereo'
p3840
I1
sS'Scooby-Doo'
p3841
I1
sS'MISCASTED'
p3842
I1
sS'NOTHING'
p3843
I1
sS'affair'
p3844
I1
sS'emerging'
p3845
I1
sS'Amovie'
p3846
I1
sS'kiddie'
p3847
I1
sS'Tara'
p3848
I1
sS'anyway'
p3849
I7
sS'Randy'
p3850
I2
sS'Stallone'
p3851
I1
sS'soldiers'
p3852
I4
sS'loveable'
p3853
I1
sS'based'
p3854
I16
sS'tire'
p3855
I1
sS'earned'
p3856
I2
sS'miniseries'
p3857
I1
sS'('
p3858
I184
sS'winner'
p3859
I2
sS'hopeful'
p3860
I1
sS'Part'
p3861
I1
sS'suckered'
p3862
I2
sS'cameos'
p3863
I1
sS'mortality'
p3864
I1
sS'dodge'
p3865
I1
sS'genitals'
p3866
I1
sS'anti-climactic'
p3867
I1
sS'overall'
p3868
I7
sS'Jackie'
p3869
I3
sS'120'
p3870
I1
sS'joint'
p3871
I1
sS'legitimate'
p3872
I2
sS'On'
p3873
I1
sS'spoofing'
p3874
I1
sS'endless'
p3875
I2
sS'Forget'
p3876
I1
sS'tobacco'
p3877
I1
sS'course'
p3878
I19
sS'shy'
p3879
I3
sS'she'
p3880
I67
sS'Impossible'
p3881
I2
sS'grab'
p3882
I1
sS'accuses'
p3883
I1
sS'pitch'
p3884
I1
sS'humans'
p3885
I3
sS'immigrant'
p3886
I1
sS'computer'
p3887
I4
sS'overtones'
p3888
I1
sS'humane'
p3889
I1
sS'REALLY'
p3890
I3
sS'Good'
p3891
I14
sS'nightmare'
p3892
I4
sS'horribly'
p3893
I2
sS'writter'
p3894
I1
sS'tend'
p3895
I2
sS'state'
p3896
I2
sS'masking'
p3897
I1
sS'neither'
p3898
I3
sS'sold'
p3899
I4
sS'tent'
p3900
I3
sS'comparable'
p3901
I1
sS'attention'
p3902
I2
sS'importance'
p3903
I2
sS'Exorcist'
p3904
I4
sS'simple-minded'
p3905
I1
sS'kicking'
p3906
I1
sS'key'
p3907
I1
sS'police'
p3908
I2
sS'precious'
p3909
I1
sS'Tolkiens'
p3910
I1
sS'limits'
p3911
I1
sS'career'
p3912
I15
sS'Atually'
p3913
I1
sS'minds'
p3914
I2
sS'admit'
p3915
I9
sS'Nickolson'
p3916
I1
sS'spooge'
p3917
I1
sS'Oh'
p3918
I18
sS'CIA'
p3919
I1
sS'Fiction'
p3920
I3
sS'franchise'
p3921
I4
sS'Music'
p3922
I1
sS'sopposed'
p3923
I1
sS'Filled'
p3924
I3
sS'erased'
p3925
I1
sS'quit'
p3926
I1
sS'addition'
p3927
I3
sS'cent'
p3928
I1
sS'liberals'
p3929
I4
sS'slowly'
p3930
I1
sS'Gaul'
p3931
I1
sS'recognize'
p3932
I1
sS'Raider'
p3933
I2
sS'senses'
p3934
I2
sS'diversity'
p3935
I1
sS'Dragon'
p3936
I1
sS'guerrillas'
p3937
I1
sS'WTH'
p3938
I1
sS'kicks'
p3939
I1
sS'smoking'
p3940
I1
sS'shameless'
p3941
I1
sS'And'
p3942
I84
sS'novel'
p3943
I7
sS'decades'
p3944
I1
sS'SHMACK'
p3945
I1
sS'Any'
p3946
I7
sS'demo'
p3947
I1
sS'Granted'
p3948
I2
sS'Pretty'
p3949
I4
sS'bucks'
p3950
I6
sS'You'
p3951
I54
sS'colostomy'
p3952
I1
sS'capture'
p3953
I1
sS'generic'
p3954
I2
sS'began'
p3955
I3
sS'funniest'
p3956
I2
sS'Denero'
p3957
I1
sS'Congressmen'
p3958
I1
sS'strange'
p3959
I5
sS'tties'
p3960
I1
sS'party'
p3961
I6
sS'http'
p3962
I2
sS'eccentric'
p3963
I1
sS'effect'
p3964
I4
sS'krueger'
p3965
I1
sS'nation'
p3966
I1
sS'steals'
p3967
I1
sS'destruction'
p3968
I2
sS'i'
p3969
I114
sS'obstacles'
p3970
I1
sS'well'
p3971
I42
sS'nebulous'
p3972
I1
sS'Fantasy'
p3973
I2
sS'Have'
p3974
I5
sS'Stern'
p3975
I1
sS'BE'
p3976
I1
sS'taller'
p3977
I1
sS'claiming'
p3978
I1
sS'accurate'
p3979
I1
sS'BH'
p3980
I1
sS'screetching'
p3981
I1
sS'Sunday'
p3982
I2
sS'BW'
p3983
I5
sS'distant'
p3984
I1
sS'40'
p3985
I2
sS'BS'
p3986
I1
sS'skill'
p3987
I1
sS'BY'
p3988
I1
sS'spells'
p3989
I1
sS'formulatic'
p3990
I1
sS'climbers'
p3991
I1
sS'Puh-leeze'
p3992
I1
sS'killed'
p3993
I11
sS'Braveheart'
p3994
I2
sS'Despite'
p3995
I2
sS'By'
p3996
I1
sS'kick'
p3997
I6
sS'Imax'
p3998
I1
sS'fate'
p3999
I1
sS'pants'
p4000
I1
sS'historic'
p4001
I1
sS'immediately'
p4002
I1
sS'prominent'
p4003
I1
sS'PAYED'
p4004
I1
sS'necessary'
p4005
I1
sS'renegade'
p4006
I1
sS'lost'
p4007
I13
sS'exteriors'
p4008
I1
sS'exploiting'
p4009
I1
sS'rots'
p4010
I1
sS'Sleepy'
p4011
I1
sS'candy'
p4012
I2
sS'taping'
p4013
I1
sS'sized'
p4014
I1
sS'sissy'
p4015
I1
sS'martin'
p4016
I1
sS'page'
p4017
I2
sS'lends'
p4018
I1
sS'warmed'
p4019
I1
sS'scripturally'
p4020
I1
sS'Avoid'
p4021
I15
sS'U2'
p4022
I1
sS'Cliffhanger'
p4023
I1
sS'shes'
p4024
I1
sS'home'
p4025
I6
sS'liking'
p4026
I2
sS'moderates'
p4027
I1
sS'steaming'
p4028
I2
sS'broad'
p4029
I1
sS'Killer'
p4030
I1
sS'However'
p4031
I16
sS'abandaned'
p4032
I1
sS'bullsh'
p4033
I1
sS'Southerners'
p4034
I1
sS'Bull'
p4035
I2
sS'Simply'
p4036
I1
sS'?'
p4037
I357
sS'inaccurate'
p4038
I3
sS'turds'
p4039
I1
sS'whippdey'
p4040
I1
sS'Up'
p4041
I3
sS'poignant'
p4042
I1
sS'Johnny'
p4043
I3
sS'freedom'
p4044
I3
sS'sinister'
p4045
I2
sS'UP'
p4046
I1
sS'US'
p4047
I8
sS'tongue'
p4048
I1
sS'equally'
p4049
I2
sS'political'
p4050
I9
sS'vulgarity'
p4051
I1
sS'Foxx'
p4052
I1
sS'j-lo'
p4053
I1
sS'couldnt'
p4054
I1
sS'pointless'
p4055
I16
sS'CGI'
p4056
I4
sS'additional'
p4057
I1
sS'Lawrence'
p4058
I4
sS'Sarte'
p4059
I1
sS'noticed'
p4060
I2
sS'South'
p4061
I4
sS'inspiration'
p4062
I1
sS'Plan'
p4063
I1
sS'north'
p4064
I1
sS'terrrible'
p4065
I1
sS'blaming'
p4066
I1
sS'gain'
p4067
I1
sS'ear'
p4068
I1
sS'eat'
p4069
I3
sS'he'
p4070
I157
sS'Sentence'
p4071
I1
sS'cells'
p4072
I1
sS'signed'
p4073
I1
sS'cruel'
p4074
I1
sS'stories'
p4075
I9
sS'piece'
p4076
I47
sS'penny'
p4077
I1
sS'kisses'
p4078
I1
sS'twist'
p4079
I1
sS'beats'
p4080
I3
sS'Alls'
p4081
I1
sS'Niro'
p4082
I1
sS'education'
p4083
I2
sS'functions'
p4084
I1
sS'ingredients'
p4085
I1
sS'Never'
p4086
I5
sS'offensive'
p4087
I6
sS'Wells'
p4088
I1
sS'Fridays'
p4089
I1
sS'crummy'
p4090
I1
sS'Besides'
p4091
I3
sS'Succesful'
p4092
I1
sS'blunders'
p4093
I1
sS'star'
p4094
I23
sS'Like'
p4095
I7
sS'RIP'
p4096
I2
sS'stay'
p4097
I6
sS'MOST'
p4098
I1
sS'pseudo-intellectual'
p4099
I1
sS'Christophor'
p4100
I1
sS'N'
p4101
I1
sS'friends'
p4102
I9
sS'Housewives'
p4103
I1
sS'using'
p4104
I11
sS'Maudlin'
p4105
I1
sS'Spanish'
p4106
I1
sS'lives'
p4107
I6
sS'unimaginative'
p4108
I1
sS'secondly'
p4109
I2
sS'craptacualarity'
p4110
I1
sS'high-budget'
p4111
I1
sS'Senseless'
p4112
I1
sS'Improvement'
p4113
I1
sS'protest'
p4114
I1
sS'asian'
p4115
I1
sS'perverted'
p4116
I1
sS'Sadly'
p4117
I3
sS'captain'
p4118
I2
sS'whose'
p4119
I3
sS'seriously'
p4120
I8
sS'presents'
p4121
I1
sS'sorry'
p4122
I21
sS'rescue'
p4123
I2
sS'void'
p4124
I1
sS'Patch'
p4125
I1
sS'smack'
p4126
I1
sS'Digimon'
p4127
I1
sS'affect'
p4128
I1
sS'Tomb'
p4129
I2
sS'low-key'
p4130
I1
sS'look'
p4131
I30
sS'Thomas'
p4132
I2
sS'skills'
p4133
I7
sS'me-it'
p4134
I1
sS'companies'
p4135
I1
sS'TELEPHONE'
p4136
I1
sS'unrelated'
p4137
I1
sS'Jon'
p4138
I3
sS'deplorable'
p4139
I2
sS'graces'
p4140
I1
sS'clothes'
p4141
I3
sS'force'
p4142
I1
sS'japanese'
p4143
I1
sS'likely'
p4144
I4
sS'Version'
p4145
I1
sS'TRASH'
p4146
I3
sS'worthlessness'
p4147
I2
sS'even'
p4148
I151
sS'irristable'
p4149
I1
sS'G'
p4150
I3
sS'wreck'
p4151
I2
sS'lights'
p4152
I3
sS'new'
p4153
I23
sS'net'
p4154
I1
sS'ever'
p4155
I160
sS'screams'
p4156
I1
sS'never'
p4157
I72
sS'Greene'
p4158
I1
sS'LOTR'
p4159
I1
sS'Ohio'
p4160
I1
sS'100'
p4161
I3
sS'cardboard'
p4162
I2
sS'dry'
p4163
I3
sS'remotely'
p4164
I3
sS'economics'
p4165
I1
sS'credit'
p4166
I8
sS'complicated'
p4167
I1
sS'suitable'
p4168
I1
sS'fantastic'
p4169
I3
sS'historicaly'
p4170
I1
sS'City'
p4171
I1
sS'Rather'
p4172
I1
sS'objectively'
p4173
I1
sS'sliced'
p4174
I1
sS'Also'
p4175
I10
sS'moral'
p4176
I7
sS'Epic'
p4177
I1
sS'Beavis'
p4178
I1
sS'criminals'
p4179
I1
sS'army'
p4180
I3
sS'call'
p4181
I8
sS'recommend'
p4182
I13
sS'leaky'
p4183
I1
sS'type'
p4184
I17
sS'tell'
p4185
I22
sS'f---er'
p4186
I2
sS'Additionally'
p4187
I3
sS'oscar'
p4188
I2
sS'wars'
p4189
I1
sS'warn'
p4190
I1
sS'adult'
p4191
I5
sS'inhabited'
p4192
I1
sS'room'
p4193
I6
sS'post-Walt'
p4194
I1
sS'rights'
p4195
I1
sS'Fraser'
p4196
I1
sS'roof'
p4197
I1
sS'movies'
p4198
I169
sS'suggestive'
p4199
I1
sS'"Conan'
p4200
I1
sS'guise'
p4201
I1
sS'akin'
p4202
I1
sS'root'
p4203
I3
sS'Irons'
p4204
I1
sS'give'
p4205
I48
sS'climax'
p4206
I1
sS'laughs'
p4207
I7
sS'honey'
p4208
I2
sS'Conick'
p4209
I1
sS'Recall'
p4210
I1
sS'degenerate'
p4211
I1
sS'cursory'
p4212
I1
sS'Liz'
p4213
I1
sS'Phoenix'
p4214
I1
sS'Watching'
p4215
I2
sS'stroy'
p4216
I2
sS'Irving'
p4217
I1
sS'stupidity'
p4218
I9
sS'Jack'
p4219
I6
sS'answer'
p4220
I1
sS'Kay'
p4221
I1
sS'rediculousely'
p4222
I1
sS'minority'
p4223
I1
sS'Eyes'
p4224
I2
sS'MUSIC'
p4225
I1
sS'curiosity'
p4226
I2
sS'president'
p4227
I6
sS'All'
p4228
I21
sS'attempt'
p4229
I12
sS'anymore'
p4230
I7
sS'third'
p4231
I3
sS'replication'
p4232
I1
sS'Civil'
p4233
I1
sS'fictitious'
p4234
I1
sS'jumbled'
p4235
I1
sS'Meanace'
p4236
I1
sS'Blue'
p4237
I2
sS'tribulations'
p4238
I1
sS'wuz'
p4239
I3
sS're-writing'
p4240
I1
sS'ghastly'
p4241
I1
sS'budding'
p4242
I1
sS'before'
p4243
I33
sS'personal'
p4244
I3
sS','
p4245
I2262
sS'crew'
p4246
I2
sS'better'
p4247
I72
sS'Osmet'
p4248
I1
sS'differently'
p4249
I1
sS'Birth'
p4250
I1
sS'Helen'
p4251
I4
sS'weeks'
p4252
I1
sS'overcome'
p4253
I1
sS'SNF'
p4254
I1
sS'Generals'
p4255
I3
sS'arsnic'
p4256
I1
sS'9'
p4257
I6
sS'therapy'
p4258
I2
sS'indulge'
p4259
I1
sS'downright'
p4260
I1
sS'Hartnett'
p4261
I2
sS'Secondly'
p4262
I1
sS'meat'
p4263
I1
sS'Indie'
p4264
I1
sS'arrested'
p4265
I3
sS'Dern'
p4266
I1
sS'Scheider'
p4267
I1
sS'MONEY'
p4268
I2
sS'americans'
p4269
I2
sS'went'
p4270
I30
sS'Hate'
p4271
I1
sS'side'
p4272
I5
sS'bone'
p4273
I1
sS'mean'
p4274
I19
sS'Croft'
p4275
I1
sS'initiative'
p4276
I1
sS'venue'
p4277
I1
sS'Wow'
p4278
I7
sS'Glasnost'
p4279
I1
sS'Woo'
p4280
I2
sS'literature'
p4281
I1
sS'over-use'
p4282
I1
sS'forgot'
p4283
I1
sS'navy'
p4284
I1
sS'comedies'
p4285
I6
sS'videotape'
p4286
I1
sS'revolting'
p4287
I1
sS'content'
p4288
I9
sS'VILLAGE'
p4289
I1
sS'Wahlberg'
p4290
I1
sS'Must'
p4291
I1
sS'Hackneyed'
p4292
I1
sS'revenge'
p4293
I4
sS'underrate'
p4294
I1
sS'LOATHE'
p4295
I1
sS'Pie-'
p4296
I1
sS'Clinton'
p4297
I3
sS'sceen'
p4298
I1
sS'starts'
p4299
I4
sS'professions'
p4300
I1
sS'punctuated'
p4301
I1
sS'isn'
p4302
I41
sS'Ryan'
p4303
I7
sS'Annoying'
p4304
I1
sS'loud'
p4305
I3
sS'Homicide'
p4306
I1
sS'features'
p4307
I1
sS'grade'
p4308
I2
sS'Halle'
p4309
I7
sS'hoot'
p4310
I1
sS'hook'
p4311
I1
sS'featured'
p4312
I3
sS'hood'
p4313
I1
sS'Aweful'
p4314
I1
sS'influence'
p4315
I1
sS'girls'
p4316
I6
sS'twisted'
p4317
I3
sS'witnessing'
p4318
I2
sS'hollywood'
p4319
I4
sS'slitting'
p4320
I1
sS'Cera'
p4321
I1
sS'definitly'
p4322
I1
sS'BBC'
p4323
I1
sS'digs'
p4324
I1
sS'Malden'
p4325
I1
sS'somewhat'
p4326
I9
sS'spoiler'
p4327
I2
sS'affront'
p4328
I1
sS'dredge'
p4329
I1
sS'unalterated'
p4330
I1
sS'Cyber'
p4331
I1
sS'matter'
p4332
I7
sS'silly'
p4333
I9
sS'littly'
p4334
I1
sS'spoiled'
p4335
I3
sS'out-act'
p4336
I1
sS'seep'
p4337
I1
sS'modern'
p4338
I10
sS'mind'
p4339
I14
sS'mine'
p4340
I3
sS'all-time'
p4341
I1
sS'emphasizing'
p4342
I1
sS'seen'
p4343
I121
sS'seem'
p4344
I11
sS'obviously'
p4345
I4
sS'tells'
p4346
I4
sS'NEVER'
p4347
I4
sS'Albert'
p4348
I1
sS'POS'
p4349
I1
sS'unexploited'
p4350
I1
sS'Frank'
p4351
I1
sS'Palistinians'
p4352
I1
sS'panties'
p4353
I2
sS'Directed'
p4354
I1
sS'tyo'
p4355
I1
sS'Dunst'
p4356
I2
sS'wrists'
p4357
I1
sS'Knight'
p4358
I1
sS'rappers'
p4359
I1
sS'overplayed'
p4360
I1
sS'regular'
p4361
I1
sS'Disel'
p4362
I2
sS'don'
p4363
I104
sS'doo'
p4364
I1
sS'm'
p4365
I77
sS'dog'
p4366
I6
sS'definitely'
p4367
I5
sS'annoyed'
p4368
I2
sS'jews_white_slavery'
p4369
I1
sS'beaten'
p4370
I2
sS'one-dimensional'
p4371
I1
sS'Carey'
p4372
I5
sS'ending'
p4373
I45
sS'implying'
p4374
I1
sS'attempts'
p4375
I4
sS'comedys'
p4376
I1
sS'whatsover'
p4377
I1
sS'explain'
p4378
I4
sS'sugar'
p4379
I1
sS'Others'
p4380
I3
sS'folks'
p4381
I3
sS'History'
p4382
I1
sS'wearing'
p4383
I2
sS'stop'
p4384
I14
sS'Days'
p4385
I3
sS'Leave'
p4386
I1
sS'WHERE'
p4387
I1
sS'bat'
p4388
I1
sS'unnecesary'
p4389
I1
sS'bar'
p4390
I2
sS'Over'
p4391
I1
sS'Washington'
p4392
I1
sS'bag'
p4393
I7
sS'bad'
p4394
I151
sS'sinker'
p4395
I1
sS'crapfest'
p4396
I1
sS'ears'
p4397
I2
sS'Woddy'
p4398
I1
sS'decides'
p4399
I1
sS'questions'
p4400
I4
sS'fascinating'
p4401
I3
sS'imitate'
p4402
I1
sS'Christianity'
p4403
I1
sS'decided'
p4404
I11
sS'Butler'
p4405
I1
sS'subject'
p4406
I2
sS'pete'
p4407
I1
sS'00'
p4408
I4
sS'said'
p4409
I25
sS'Somebody'
p4410
I3
sS'Moments"'
p4411
I1
sS'Took'
p4412
I1
sS'artificial'
p4413
I1
sS'sais'
p4414
I1
sS'disprove'
p4415
I1
sS'sorts'
p4416
I1
sS'tolerance'
p4417
I1
sS'Files'
p4418
I1
sS'C'
p4419
I1
sS'omg'
p4420
I1
sS'wears'
p4421
I1
sS'dumber'
p4422
I2
sS'ignorance'
p4423
I1
sS'motta'
p4424
I1
sS'cousin'
p4425
I1
sS'picking'
p4426
I1
sS'uncreative'
p4427
I3
sS'Otherwise'
p4428
I6
sS'CLOSER'
p4429
I1
sS'McDonald'
p4430
I3
sS'Kryptic'
p4431
I1
sS'against'
p4432
I12
sS'distinction'
p4433
I2
sS'appeared'
p4434
I2
sS'height'
p4435
I1
sS'Applegate'
p4436
I1
sS'Forest'
p4437
I2
sS'path'
p4438
I1
sS'proceeded'
p4439
I1
sS'puts'
p4440
I3
sS'basis'
p4441
I1
sS'three'
p4442
I17
sS'tiny'
p4443
I4
sS'Coen'
p4444
I4
sS'revisionist'
p4445
I1
sS'interest'
p4446
I8
sS'basic'
p4447
I3
sS'entered'
p4448
I1
sS'lovely'
p4449
I2
sS'threw'
p4450
I1
sS'website'
p4451
I2
sS'deeper'
p4452
I1
sS'CG'
p4453
I2
sS'personally'
p4454
I4
sS'anti-arab'
p4455
I1
sS'exception'
p4456
I7
sS'sacchrine'
p4457
I1
sS'transformation'
p4458
I1
sS'trapsing'
p4459
I1
sS'ugly'
p4460
I1
sS'near'
p4461
I7
sS'suppose'
p4462
I2
sS'murders'
p4463
I1
sS'deceipt'
p4464
I1
sS'chilling'
p4465
I1
sS'seven'
p4466
I1
sS'worse-'
p4467
I1
sS'iq'
p4468
I1
sS'HATED'
p4469
I2
sS'is'
p4470
I906
sS'it'
p4471
I920
sS'shame'
p4472
I4
sS'cant'
p4473
I4
sS'im'
p4474
I7
sS'in'
p4475
I627
sS'id'
p4476
I3
sS'if'
p4477
I104
sS'grown'
p4478
I1
sS'resemblence'
p4479
I1
sS'make'
p4480
I111
sS'speculating'
p4481
I1
sS'potentially'
p4482
I1
sS'unfortunate'
p4483
I1
sS'80s'
p4484
I1
sS'President'
p4485
I2
sS'confronting'
p4486
I1
sS'Beatlemania'
p4487
I1
sS'meets'
p4488
I2
sS'Usually'
p4489
I1
sS'overt'
p4490
I1
sS'opportunity'
p4491
I2
sS'aka'
p4492
I1
sS'thoughts'
p4493
I1
sS'kid'
p4494
I17
sS'practiced'
p4495
I1
sS'romp'
p4496
I1
sS'LAME'
p4497
I2
sS'failing'
p4498
I1
sS'Sonja'
p4499
I1
sS'unsuitable'
p4500
I1
sS'Vs'
p4501
I1
sS'tombstone'
p4502
I1
sS'qualities'
p4503
I1
sS'claims'
p4504
I2
sS'Abominable'
p4505
I1
sS'smoked'
p4506
I1
sS'pooping'
p4507
I1
sS'left'
p4508
I25
sS'yeh'
p4509
I1
sS'De'
p4510
I1
sS'just'
p4511
I230
sS'sentence'
p4512
I1
sS'unfair'
p4513
I1
sS'verses'
p4514
I1
sS'certaintly'
p4515
I2
sS'Nemesis'
p4516
I1
sS'human'
p4517
I13
sS'facts'
p4518
I7
sS'yep'
p4519
I1
sS'yes'
p4520
I3
sS'yet'
p4521
I18
sS'vomitting'
p4522
I1
sS'lowbrow'
p4523
I4
sS'candidate'
p4524
I1
sS'assassination'
p4525
I1
sS'character'
p4526
I37
sS'wretch'
p4527
I1
sS'save'
p4528
I16
sS'Roberts'
p4529
I2
sS'background'
p4530
I1
sS'Scorsese'
p4531
I3
sS'dreams'
p4532
I1
sS'dignity'
p4533
I1
sS'Art'
p4534
I1
sS'airhead'
p4535
I1
sS'Barker'
p4536
I2
sS'nude'
p4537
I2
sS'Are'
p4538
I4
sS'zombies'
p4539
I1
sS'confront'
p4540
I1
sS'notorious'
p4541
I1
sS'Prince'
p4542
I1
sS'cowardice'
p4543
I1
sS'www'
p4544
I4
sS'deal'
p4545
I3
sS'deaf'
p4546
I1
sS'somehow'
p4547
I3
sS'dead'
p4548
I19
sS'Gigli'
p4549
I5
sS'dear'
p4550
I2
sS'HOLLYWOOD'
p4551
I1
sS'suckiest'
p4552
I1
sS'Quite'
p4553
I1
sS'Limpet'
p4554
I1
sS'squeamish'
p4555
I2
sS'promos'
p4556
I1
sS'protagonist'
p4557
I1
sS'Depp'
p4558
I2
sS'McDonalds'
p4559
I1
sS'super'
p4560
I1
sS'puking'
p4561
I1
sS'barbarians'
p4562
I1
sS'submarine'
p4563
I1
sS'magazine'
p4564
I1
sS'son-in-laws'
p4565
I1
sS'Cameron'
p4566
I2
sS'commit'
p4567
I1
sS'automatically'
p4568
I1
sS'Marius'
p4569
I1
sS'robocop'
p4570
I1
sS'nerve'
p4571
I1
sS'whats'
p4572
I1
sS'subs'
p4573
I1
sS'formerly'
p4574
I1
sS'Dallas'
p4575
I1
sS'bundles'
p4576
I1
sS'intellectual'
p4577
I3
sS'lier'
p4578
I1
sS'lies'
p4579
I6
sS'overkill'
p4580
I1
sS'Vinny'
p4581
I1
sS'carving'
p4582
I1
sS'Stay'
p4583
I4
sS'frightened'
p4584
I1
sS'Unless'
p4585
I5
sS'performanes'
p4586
I1
sS'flying'
p4587
I2
sS'Gwyneth'
p4588
I2
sS'lampoon'
p4589
I1
sS'STUPID'
p4590
I3
sS'let-down'
p4591
I1
sS'editor'
p4592
I1
sS'Faucet'
p4593
I1
sS'Columbine'
p4594
I1
sS'form'
p4595
I2
sS'seeking'
p4596
I4
sS'batman'
p4597
I1
sS'feminine'
p4598
I1
sS'approval'
p4599
I1
sS'Z'
p4600
I3
sS'"One'
p4601
I1
sS'underfunded'
p4602
I1
sS'Golden'
p4603
I1
sS'understood'
p4604
I1
sS'bounds'
p4605
I1
sS'verbiage'
p4606
I1
sS'horrifying'
p4607
I1
sS'propaganda'
p4608
I10
sS'sticks'
p4609
I1
sS'classic'
p4610
I12
sS'Conner'
p4611
I1
sS'die-'
p4612
I1
sS'mediocre'
p4613
I3
sS'marking'
p4614
I1
sS'suspence'
p4615
I2
sS'generally'
p4616
I1
sS'venison'
p4617
I1
sS'Channel'
p4618
I1
sS'Jar-Jar'
p4619
I1
sS'dies'
p4620
I2
sS'felt'
p4621
I22
sS'Arnold'
p4622
I2
sS'fell'
p4623
I16
sS'Gwynee'
p4624
I1
sS'died'
p4625
I9
sS'jacked'
p4626
I1
sS'midevil'
p4627
I1
sS'Constant'
p4628
I1
sS'happening'
p4629
I2
sS'assume'
p4630
I2
sS'salt'
p4631
I1
sS'jacket'
p4632
I1
sS'gorilla'
p4633
I1
sS'Second'
p4634
I4
sS'Pathetically'
p4635
I1
sS'teeth'
p4636
I2
sS'managed'
p4637
I2
sS'skip'
p4638
I3
sS'cking'
p4639
I1
sS'bombed'
p4640
I2
sS'themes'
p4641
I2
sS'Mean-spirited'
p4642
I1
sS'manager'
p4643
I1
sS'mile'
p4644
I4
sS'skin'
p4645
I1
sS'mill'
p4646
I2
sS'suicide'
p4647
I3
sS'bobbybo'
p4648
I1
sS'fifth-rate'
p4649
I1
sS'technique'
p4650
I1
sS'father'
p4651
I3
sS'disgusting'
p4652
I8
sS'psychics'
p4653
I1
sS'0'
p4654
I8
sS'finally'
p4655
I7
sS'unpleasant'
p4656
I1
sS'reptiles'
p4657
I1
sS'FORREST'
p4658
I1
sS'Watership'
p4659
I1
sS'me'
p4660
I172
sS'beleave'
p4661
I1
sS'sci-fi'
p4662
I7
sS'yeast'
p4663
I1
sS'billionaire'
p4664
I1
sS'Buddies'
p4665
I2
sS'sappy'
p4666
I1
sS'Where'
p4667
I14
sS'did'
p4668
I86
sS'die'
p4669
I15
sS'accidentally'
p4670
I1
sS'anesthetic'
p4671
I1
sS'talked'
p4672
I2
sS'nineties'
p4673
I1
sS'dealing'
p4674
I3
sS'Nellie'
p4675
I1
sS'captures'
p4676
I1
sS'Shakespeare'
p4677
I4
sS'run'
p4678
I4
sS'sabertooth'
p4679
I1
sS'Head'
p4680
I1
sS'adds'
p4681
I2
sS'filler'
p4682
I2
sS'favour'
p4683
I1
sS'suspect'
p4684
I1
sS'filled'
p4685
I9
sS'makeup'
p4686
I5
sS'victimized'
p4687
I2
sS'french'
p4688
I1
sS'Stalin'
p4689
I1
sS'deceit'
p4690
I1
sS'Charlize'
p4691
I1
sS'wait'
p4692
I8
sS'box'
p4693
I6
sS'boy'
p4694
I5
sS'loudly'
p4695
I1
sS'bratty'
p4696
I1
sS'salvage'
p4697
I1
sS'bring-up'
p4698
I1
sS'exploitation'
p4699
I3
sS'Horrendous'
p4700
I1
sS'priceless'
p4701
I1
sS'teenage'
p4702
I2
sS'elect'
p4703
I1
sS'Matrix'
p4704
I4
sS'merely'
p4705
I2
sS'When'
p4706
I17
sS'Starfleet'
p4707
I1
sS'sympathetic'
p4708
I1
sS'troops'
p4709
I2
sS'sake'
p4710
I3
sS'visit'
p4711
I3
sS'Damned'
p4712
I1
sS'scenarios'
p4713
I1
sS'Hogwarts'
p4714
I1
sS'Allowing'
p4715
I1
sS'Diary'
p4716
I1
sS'sharpen'
p4717
I1
sS'thru'
p4718
I1
sS'beer-drinking'
p4719
I1
sS'Ben'
p4720
I13
sS'travesty'
p4721
I7
sS'acceptable'
p4722
I1
sS'Bee'
p4723
I4
sS'scivvies'
p4724
I1
sS'savior'
p4725
I1
sS'Brad'
p4726
I2
sS'effort'
p4727
I4
sS'Shrewed'
p4728
I1
sS'fly'
p4729
I1
sS'Duke'
p4730
I1
sS'SCI-FI'
p4731
I1
sS'unexciting'
p4732
I1
sS'soul'
p4733
I4
sS'reviews'
p4734
I7
sS'frivolity'
p4735
I1
sS'sour'
p4736
I1
sS'drags'
p4737
I3
sS'growing'
p4738
I1
sS'making'
p4739
I32
sS'arrive'
p4740
I1
sS'bites'
p4741
I1
sS'Children'
p4742
I1
sS'claim'
p4743
I2
sS'crazy'
p4744
I11
sS'predict'
p4745
I2
sS'confused'
p4746
I1
sS'agent'
p4747
I1
sS'Damon'
p4748
I1
sS'confuses'
p4749
I1
sS'YOUR'
p4750
I1
sS'carcature'
p4751
I1
sS'definatley'
p4752
I1
sS'emotionless'
p4753
I1
sS'pure'
p4754
I4
sS'skates'
p4755
I1
sS'map'
p4756
I1
sS'144'
p4757
I1
sS'Sleepless'
p4758
I1
sS'sorority-mad'
p4759
I1
sS'critics'
p4760
I4
sS'fed'
p4761
I1
sS'membership'
p4762
I1
sS'ISHTAR'
p4763
I1
sS'mad'
p4764
I5
sS'crappiest'
p4765
I1
sS'destructive'
p4766
I2
sS'guys'
p4767
I12
sS'grow'
p4768
I1
sS'HYPERCITY'
p4769
I1
sS'man'
p4770
I33
sS'close-up'
p4771
I1
sS'maybe'
p4772
I13
sS'tale'
p4773
I8
sS'switch'
p4774
I1
sS'talk'
p4775
I4
sS'cute'
p4776
I5
sS'dojo'
p4777
I1
sS'druggies'
p4778
I2
sS'nuts'
p4779
I1
sS'shaky'
p4780
I1
sS'wishing'
p4781
I2
sS'star-studded'
p4782
I1
sS'Britany'
p4783
I1
sS'cuts'
p4784
I2
sS'spinoff'
p4785
I1
sS'irene'
p4786
I1
sS'group'
p4787
I6
sS'thank'
p4788
I3
sS'interesting'
p4789
I20
sS'Rain'
p4790
I1
sS'maid'
p4791
I1
sS'WTF'
p4792
I2
sS'durring'
p4793
I1
sS'World'
p4794
I4
sS'main'
p4795
I12
sS'texas'
p4796
I1
sS'views'
p4797
I4
sS'killer'
p4798
I6
sS'sooner'
p4799
I2
sS'interview'
p4800
I1
sS'She'
p4801
I15
sS'Scream'
p4802
I10
sS'Everything'
p4803
I4
sS'careless'
p4804
I1
sS'4kids'
p4805
I1
sS'rock'
p4806
I6
sS'relys'
p4807
I1
sS'preaching'
p4808
I1
sS'girl'
p4809
I21
sS'Ken'
p4810
I1
sS'3rd'
p4811
I2
sS'Successful'
p4812
I1
sS'pedophile'
p4813
I1
sS'miles'
p4814
I1
sS'Plague'
p4815
I1
sS'correct'
p4816
I2
sS'goth'
p4817
I1
sS'earlier'
p4818
I3
sS'monster'
p4819
I2
sS'Farrah'
p4820
I1
sS'Sometimes'
p4821
I1
sS'Judd'
p4822
I2
sS'JKooks'
p4823
I1
sS'advance'
p4824
I2
sS'language'
p4825
I8
sS'Being'
p4826
I2
sS'oooeeeeeeeeeeeeeeeeeeeeeeeeeeee'
p4827
I1
sS'thing'
p4828
I74
sS'nuff'
p4829
I1
sS'think'
p4830
I96
sS'waited'
p4831
I2
sS'first'
p4832
I99
sS'cheese'
p4833
I3
sS'Black'
p4834
I8
sS'long'
p4835
I55
sS'corporations'
p4836
I1
sS'sounds'
p4837
I4
sS'cheesy'
p4838
I11
sS'yicky'
p4839
I1
sS'little'
p4840
I37
sS'personalities'
p4841
I3
sS'Hoffman'
p4842
I1
sS'slept'
p4843
I1
sS'anyone'
p4844
I42
sS'Intentions'
p4845
I2
sS'Completely'
p4846
I1
sS'fiery'
p4847
I1
sS'Goodguy'
p4848
I1
sS'WORLD'
p4849
I1
sS'Frightening'
p4850
I1
sS'mermaid'
p4851
I1
sS'eyes'
p4852
I8
sS'continuous'
p4853
I1
sS'broadcast'
p4854
I1
sS'sequels'
p4855
I3
sS'butt'
p4856
I3
sS'infiltrate'
p4857
I1
sS'11'
p4858
I4
sS'10'
p4859
I17
sS'12'
p4860
I7
sS'15'
p4861
I11
sS'16'
p4862
I4
sS'19'
p4863
I1
sS'18'
p4864
I2
sS'gotta'
p4865
I2
sS'knives'
p4866
I1
sS'were'
p4867
I141
sS'gigantic'
p4868
I1
sS'DO'
p4869
I3
sS'Hobbits'
p4870
I2
sS'topics'
p4871
I1
sS'voices'
p4872
I2
sS'dash'
p4873
I2
sS'conspiracy'
p4874
I1
sS'comedian'
p4875
I1
sS'spectacle'
p4876
I2
sS'Do'
p4877
I8
sS'Shaun'
p4878
I2
sS'bailed'
p4879
I1
sS'mind-numbingly'
p4880
I1
sS'Murphy'
p4881
I4
sS'shocked'
p4882
I3
sS'potential'
p4883
I7
sS'shocker'
p4884
I1
sS'performance'
p4885
I18
sS'wonder'
p4886
I9
sS'Dr'
p4887
I6
sS'channel'
p4888
I2
sS'ultimate'
p4889
I1
sS'200'
p4890
I1
sS'pain'
p4891
I4
sS'theatre'
p4892
I11
sS'normal'
p4893
I3
sS'track'
p4894
I1
sS'Keanu'
p4895
I2
sS'paid'
p4896
I8
sS'Strawberry'
p4897
I1
sS'girlfriends'
p4898
I1
sS'complaints'
p4899
I1
sS'atrocity'
p4900
I2
sS'massacred'
p4901
I1
sS'especially'
p4902
I10
sS'surprising'
p4903
I2
sS'shop'
p4904
I1
sS'rating'
p4905
I20
sS'WE'
p4906
I1
sS'shot'
p4907
I8
sS'WB'
p4908
I1
sS'show'
p4909
I31
sS'Barry'
p4910
I1
sS'contemporary'
p4911
I1
sS'supposition'
p4912
I1
sS'Stephen'
p4913
I1
sS'takin'
p4914
I1
sS'Mathew'
p4915
I1
sS'We'
p4916
I6
sS'pinheads'
p4917
I1
sS'crapped'
p4918
I1
sS'dick'
p4919
I1
sS'behind'
p4920
I5
sS'Hulk'
p4921
I1
sS'either'
p4922
I20
sS'Genuises'
p4923
I1
sS'black'
p4924
I17
sS'Starring'
p4925
I2
sS'enthusiasm'
p4926
I1
sS'Translation'
p4927
I3
sS'mocumentaries'
p4928
I1
sS'sensitivities'
p4929
I1
sS'RIA'
p4930
I1
sS'ranking'
p4931
I1
sS'get'
p4932
I100
sS'geocentric'
p4933
I1
sS'westerns'
p4934
I1
sS'killers'
p4935
I3
sS'nearly'
p4936
I6
sS'gee'
p4937
I2
sS'Rodney'
p4938
I1
sS'sited'
p4939
I1
sS'gem'
p4940
I1
sS'Right'
p4941
I3
sS'Angel'
p4942
I1
sS'morning'
p4943
I1
sS'stupid'
p4944
I100
sS'seat'
p4945
I2
sS'Sigourney'
p4946
I3
sS'Hopefully'
p4947
I2
sS'HELL'
p4948
I2
sS'"scary"'
p4949
I1
sS'satisfying'
p4950
I1
sS'parent'
p4951
I1
sS'camping'
p4952
I1
sS'Hepburn'
p4953
I1
sS'Hours'
p4954
I1
sS'enough'
p4955
I42
sS'reading'
p4956
I7
sS'across'
p4957
I8
sS'Check'
p4958
I1
sS'satiate'
p4959
I1
sS'campaign'
p4960
I1
sS'AHEAD'
p4961
I1
sS'parental'
p4962
I1
sS'crucified'
p4963
I1
sS'killing'
p4964
I7
sS'tub'
p4965
I1
sS'dates'
p4966
I1
sS'stinker'
p4967
I2
sS'sterotypes'
p4968
I2
sS'according'
p4969
I2
sS'tour'
p4970
I1
sS'patrons'
p4971
I1
sS'disappointment'
p4972
I12
sS'remake'
p4973
I16
sS'among'
p4974
I3
sS'guniea'
p4975
I1
sS'cancer'
p4976
I1
sS'Trilogy'
p4977
I1
sS'Cruelty'
p4978
I1
sS'Pearl'
p4979
I6
sS'freak'
p4980
I2
sS'custody'
p4981
I1
sS'considering'
p4982
I5
sS'arts'
p4983
I3
sS'Sure'
p4984
I2
sS'mark'
p4985
I1
sS'BLECHH'
p4986
I1
sS'judging'
p4987
I2
sS'Daltry'
p4988
I1
sS'protrays'
p4989
I1
sS'educated'
p4990
I3
sS'Broderick'
p4991
I1
sS'offered'
p4992
I1
sS'dramatic'
p4993
I8
sS'Ice'
p4994
I2
sS'Action'
p4995
I2
sS'Rustun'
p4996
I1
sS'COME'
p4997
I2
sS'those'
p4998
I37
sS'sound'
p4999
I9
sS'warning'
p5000
I2
sS'promising'
p5001
I1
sS'cancelled'
p5002
I2
sS'Avenue'
p5003
I1
sS'then'
p5004
I46
sS'sleeping'
p5005
I1
sS'middle'
p5006
I3
sS'Wood'
p5007
I2
sS'obnoxious'
p5008
I6
sS'movements'
p5009
I2
sS'bags'
p5010
I1
sS'different'
p5011
I7
sS'harsh'
p5012
I1
sS'doctor'
p5013
I2
sS'pay'
p5014
I8
sS'same'
p5015
I31
sS'Plane'
p5016
I1
sS'speech'
p5017
I5
sS'triumphantly'
p5018
I1
sS'Waves'
p5019
I1
sS'stepped'
p5020
I1
sS'pan'
p5021
I1
sS'extended'
p5022
I2
sS'EXISTS'
p5023
I1
sS'Badly'
p5024
I1
sS'running'
p5025
I12
sS'climbing'
p5026
I1
sS'discernable'
p5027
I1
sS'totally'
p5028
I28
sS'shopworn'
p5029
I1
sS'Voorhes'
p5030
I1
sS'Rene'
p5031
I1
sS'Motors'
p5032
I1
sS'roughly'
p5033
I1
sS'spoonful'
p5034
I1
sS'amounts'
p5035
I1
sS'Rent'
p5036
I1
sS'amazed'
p5037
I3
sS'parody'
p5038
I4
sS'gangs'
p5039
I1
sS'THOUGH'
p5040
I1
sS'money'
p5041
I72
sS'aspect'
p5042
I3
sS'BOOOOO'
p5043
I1
sS'clueless'
p5044
I2
sS'Ripper'
p5045
I1
sS'4'
p5046
I10
sS'Although'
p5047
I6
sS'grating'
p5048
I2
sS'self-promoting'
p5049
I1
sS'careers'
p5050
I1
sS'grip'
p5051
I1
sS'jake'
p5052
I1
sS'mor'
p5053
I1
sS'gearge'
p5054
I1
sS'chainsaw'
p5055
I1
sS'seres'
p5056
I1
sS'mom'
p5057
I5
sS'mob'
p5058
I1
sS'disappointed'
p5059
I10
sS'missing-'
p5060
I1
sS'serves'
p5061
I4
sS'audience'
p5062
I11
sS'London'
p5063
I1
sS'laughing'
p5064
I2
sS'view'
p5065
I9
sS'served'
p5066
I1
sS'Neo'
p5067
I4
sS'jews'
p5068
I1
sS'witchcraft'
p5069
I4
sS'l'
p5070
I1
sS'images'
p5071
I1
sS'New'
p5072
I8
sS'gross'
p5073
I9
sS'Meg'
p5074
I6
sS'Gees'
p5075
I4
sS'colonial'
p5076
I1
sS'Men'
p5077
I2
sS'overly'
p5078
I4
sS'Schinder'
p5079
I1
sS'critical'
p5080
I5
sS'dimbulbs'
p5081
I1
sS'moderate'
p5082
I1
sS'Dry'
p5083
I1
sS'egocentric'
p5084
I1
sS'dissapointing'
p5085
I2
sS'seconds'
p5086
I6
sS'notable'
p5087
I1
sS'unusual'
p5088
I2
sS'broken'
p5089
I1
sS'roaming'
p5090
I2
sS'AN'
p5091
I1
sS'raptor'
p5092
I1
sS'Rambo'
p5093
I1
sS'opium'
p5094
I1
sS'crabtree'
p5095
I3
sS'AAAAARRRRRGGGGGHHHHH'
p5096
I1
sS'island'
p5097
I1
sS'violence'
p5098
I8
sS'drag'
p5099
I2
sS'demonic'
p5100
I6
sS'Dumbest'
p5101
I2
sS'mixed'
p5102
I1
sS'threesome'
p5103
I1
sS'road'
p5104
I1
sS'Fanning'
p5105
I1
sS'lands'
p5106
I1
sS'dagger'
p5107
I1
sS'skilled'
p5108
I1
sS'references'
p5109
I1
sS'strip'
p5110
I1
sS'othewise'
p5111
I1
sS'Week'
p5112
I1
sS'Though'
p5113
I1
sS'brute'
p5114
I1
sS'Weed'
p5115
I1
sS'downey'
p5116
I1
sS'Characters'
p5117
I2
sS'unsatisfaction'
p5118
I1
sS'THIS-IS-CRAP'
p5119
I1
sS'downer'
p5120
I1
sS'gory'
p5121
I1
sS'Uh-uh'
p5122
I1
sS'Walked'
p5123
I2
sS'Aside'
p5124
I1
sS'wiping'
p5125
I1
sS'gore'
p5126
I3
sS'overlong'
p5127
I1
sS'Beneath'
p5128
I2
sS'Twenty-two'
p5129
I1
sS'romantic'
p5130
I3
sS'SHOULD'
p5131
I1
sS'Eddie'
p5132
I3
sS'suitcase'
p5133
I1
sS'Pollak'
p5134
I1
sS'Blues'
p5135
I1
sS'USA'
p5136
I2
sS'Wicker'
p5137
I1
sS'deer'
p5138
I2
sS'deep'
p5139
I2
sS'general'
p5140
I3
sS'imagination'
p5141
I1
sS'Lets'
p5142
I1
sS'girlfriend'
p5143
I6
sS'deterrent'
p5144
I1
sS'utilised'
p5145
I1
sS'film'
p5146
I252
sS'fill'
p5147
I3
sS'tedious'
p5148
I2
sS'again'
p5149
I34
sS'Benes'
p5150
I1
sS'HARLIN'
p5151
I1
sS'WHEN'
p5152
I2
sS'As'
p5153
I23
sS'field'
p5154
I1
sS'WHEW'
p5155
I1
sS'Dreamworks'
p5156
I2
sS'students'
p5157
I1
sS'important'
p5158
I2
sS'mishmash'
p5159
I1
sS'Major'
p5160
I1
sS'Holy'
p5161
I1
sS'Yeah'
p5162
I4
sS'u'
p5163
I6
sS'nerdiness'
p5164
I1
sS'alright'
p5165
I4
sS'oral'
p5166
I2
sS'Overrated'
p5167
I2
sS'forges'
p5168
I1
sS'Van'
p5169
I2
sS'forget'
p5170
I3
sS'Treacle'
p5171
I1
sS'dollar'
p5172
I2
sS'sunk'
p5173
I2
sS'Wayne'
p5174
I1
sS'talks'
p5175
I2
sS'expressions'
p5176
I1
sS'children'
p5177
I22
sS'reluctant'
p5178
I1
sS'shattered'
p5179
I1
sS'alongs'
p5180
I1
sS'anti-semitic'
p5181
I1
sS'"mom"'
p5182
I1
sS'Training'
p5183
I1
sS'sitting'
p5184
I7
sS'Cheapquel'
p5185
I1
sS'plausibility'
p5186
I1
sS'overdone'
p5187
I5
sS'fall'
p5188
I14
sS'difference'
p5189
I3
sS'wsa'
p5190
I1
sS'pre'
p5191
I1
sS'mothers'
p5192
I1
sS'drugged'
p5193
I1
sS'juxtaposition'
p5194
I1
sS'bankrolled'
p5195
I1
sS'Kill'
p5196
I2
sS'B-grade'
p5197
I1
sS'Ring'
p5198
I2
sS'embarrasing'
p5199
I2
sS'titled'
p5200
I1
sS'Actually'
p5201
I3
sS'Only'
p5202
I5
sS'titles'
p5203
I2
sS'perspective'
p5204
I1
sS'lawyer'
p5205
I1
sS'BIGGEST'
p5206
I1
sS'further'
p5207
I3
sS'Gave'
p5208
I1
sS'90s'
p5209
I1
sS'stood'
p5210
I1
sS'illogical'
p5211
I2
sS'TALKING'
p5212
I1
sS'diaz'
p5213
I1
sS'public'
p5214
I6
sS'movement'
p5215
I2
sS'Fallon'
p5216
I1
sS'Shamala'
p5217
I2
sS'Contact'
p5218
I1
sS'threads'
p5219
I2
sS'fantasies'
p5220
I2
sS'fatter'
p5221
I1
sS'bible'
p5222
I1
sS'jackie'
p5223
I2
sS'Pokemon4Ever'
p5224
I1
sS'Naomi'
p5225
I2
sS'creepiness'
p5226
I1
sS'perpetuate'
p5227
I1
sS'arrogance'
p5228
I2
sS'eye'
p5229
I2
sS'two'
p5230
I45
sS'FEEL'
p5231
I1
sS'Coming'
p5232
I1
sS'tacky'
p5233
I1
sS'OUT'
p5234
I1
sS'neverending'
p5235
I1
sS'Redemption'
p5236
I1
sS'plant'
p5237
I1
sS'American'
p5238
I21
sS'Roger'
p5239
I4
sS'particular'
p5240
I3
sS'karaoke'
p5241
I1
sS'town'
p5242
I1
sS'none'
p5243
I10
sS'sucky'
p5244
I1
sS'recall'
p5245
I7
sS'maniac'
p5246
I2
sS'sucks'
p5247
I32
sS'Hamlet'
p5248
I1
sS'guards'
p5249
I1
sS'dem'
p5250
I1
sS'Plotless'
p5251
I1
sS'Funny'
p5252
I1
sS'compare'
p5253
I3
sS'bravely'
p5254
I1
sS'ELDERS'
p5255
I1
sS'share'
p5256
I3
sS'painfull'
p5257
I2
sS'Corpulent'
p5258
I1
sS'numbers'
p5259
I3
sS'purchased'
p5260
I1
sS'!'
p5261
I675
sS'needs'
p5262
I10
sS'wisely'
p5263
I1
sS'Raymond'
p5264
I1
sS'awkward'
p5265
I2
sS'needy'
p5266
I1
sS'acts'
p5267
I6
sS'Beastmaster'
p5268
I1
sS'Carpenter'
p5269
I1
sS'Meaning'
p5270
I1
sS'sacred'
p5271
I1
sS'Rugrats'
p5272
I1
sS'Easily'
p5273
I3
sS'Don'
p5274
I25
sS'raunch'
p5275
I1
sS'slow-mo'
p5276
I2
sS'advice'
p5277
I3
sS'intones'
p5278
I1
sS'spectacularly'
p5279
I1
sS'coming'
p5280
I6
sS'Furious'
p5281
I1
sS'DULL'
p5282
I2
sS'coat'
p5283
I1
sS'Chucky'
p5284
I2
sS'responsibility'
p5285
I1
sS'pleasure'
p5286
I1
sS'gangster-type'
p5287
I1
sS'Pointless'
p5288
I3
sS'playing'
p5289
I10
sS'What'
p5290
I87
sS'Chalice'
p5291
I1
sS'industrial'
p5292
I1
sS'through'
p5293
I57
sS'Roald'
p5294
I2
sS'existence'
p5295
I2
sS'suffer'
p5296
I2
sS'drinking'
p5297
I1
sS'arrogant'
p5298
I1
sS'25'
p5299
I4
sS'comedic'
p5300
I1
sS'20'
p5301
I13
sS'21'
p5302
I1
sS'28'
p5303
I1
sS'handheld'
p5304
I1
sS'late'
p5305
I2
sS'headache-inducing'
p5306
I1
sS'heartstopping'
p5307
I1
sS'worshiping'
p5308
I1
sS'Shockingly'
p5309
I2
sS'goof'
p5310
I1
sS'hurting'
p5311
I1
sS'good'
p5312
I175
sS'disrespectful'
p5313
I3
sS'jeepers'
p5314
I1
sS'Estevez'
p5315
I1
sS'socially'
p5316
I1
sS'Bay'
p5317
I2
sS'Bad'
p5318
I22
sS'complain'
p5319
I1
sS'viewers'
p5320
I2
sS'Amendment'
p5321
I1
sS'easily'
p5322
I5
sS'Saving'
p5323
I2
sS'Lace'
p5324
I1
sS'fantasy'
p5325
I4
sS'Lack'
p5326
I1
sS'Potter'
p5327
I4
sS'deteriorated'
p5328
I1
sS'exiled'
p5329
I1
sS'Hmmm'
p5330
I1
sS'everyone'
p5331
I20
sS'mental'
p5332
I6
sS'visually'
p5333
I1
sS'house'
p5334
I9
sS'energy'
p5335
I3
sS'hard'
p5336
I20
sS'idea'
p5337
I30
sS'oil'
p5338
I2
sS'connect'
p5339
I1
sS'lovers'
p5340
I2
sS'funding'
p5341
I1
sS'childish'
p5342
I4
sS'participants'
p5343
I1
sS'print'
p5344
I1
sS'tiresome'
p5345
I2
sS'evaluation'
p5346
I1
sS'Cool'
p5347
I1
sS'pathetic'
p5348
I18
sS'commits'
p5349
I1
sS'toy'
p5350
I1
sS'ISN'
p5351
I1
sS'members'
p5352
I2
sS'laughable'
p5353
I7
sS'beginning'
p5354
I17
sS'Propaganda'
p5355
I1
sS'Yankees'
p5356
I1
sS'faucet'
p5357
I1
sS'Ed'
p5358
I1
sS'needing'
p5359
I1
sS'sitcom'
p5360
I1
sS'sarcasm'
p5361
I3
sS'pilots'
p5362
I1
sS'Pullman'
p5363
I1
sS'dont'
p5364
I18
sS'mistakenly'
p5365
I1
sS'barbarian'
p5366
I1
sS'humourous'
p5367
I1
sS'done'
p5368
I18
sS'campground'
p5369
I1
sS'Myers'
p5370
I2
sS'Okay'
p5371
I3
sS'Slight'
p5372
I1
sS'divorce'
p5373
I1
sS'Screen'
p5374
I1
sS'revive'
p5375
I1
sS'least'
p5376
I41
sS'paint'
p5377
I2
sS'180'
p5378
I1
sS'assumption'
p5379
I1
sS'statement'
p5380
I4
sS'rates'
p5381
I1
sS'Sly'
p5382
I2
sS'wildly'
p5383
I1
sS'park'
p5384
I4
sS'part'
p5385
I28
sS'franchises'
p5386
I2
sS'gruesome'
p5387
I2
sS'believe'
p5388
I35
sS'carnage'
p5389
I2
sS'Taxi'
p5390
I1
sS'quasi-homosexual'
p5391
I1
sS'b'
p5392
I1
sS'eraseres'
p5393
I1
sS'gotten'
p5394
I4
sS'dogs'
p5395
I3
sS'recording'
p5396
I1
sS'supposed'
p5397
I20
sS'toe'
p5398
I1
sS'treated'
p5399
I1
sS'declare'
p5400
I1
sS'Polaksky'
p5401
I1
sS'ages'
p5402
I1
sS'direct'
p5403
I1
sS'categorized'
p5404
I1
sS'aged'
p5405
I2
sS'orders'
p5406
I1
sS'mountain'
p5407
I4
sS'exhaggerated'
p5408
I1
sS'built'
p5409
I1
sS'Power'
p5410
I1
sS'dancing'
p5411
I5
sS'couch'
p5412
I1
sS'majority'
p5413
I2
sS'build'
p5414
I4
sS'commentary'
p5415
I1
sS'Kid'
p5416
I1
sS'Episode'
p5417
I1
sS'pondering'
p5418
I1
sS'most'
p5419
I80
sS'highflyer'
p5420
I1
sS'significant'
p5421
I4
sS'lesbian-killer'
p5422
I1
sS'extremely'
p5423
I13
sS'Farrel'
p5424
I1
sS'cretins'
p5425
I1
sS'Egypt'
p5426
I1
sS'outsmart'
p5427
I1
sS'WATCH'
p5428
I1
sS'storyline'
p5429
I20
sS'consisted'
p5430
I1
sS'Robinson'
p5431
I1
sS'particularly'
p5432
I4
sS'rebels'
p5433
I1
sS'HBO'
p5434
I5
sS'Hill'
p5435
I1
sS'bodybuilding'
p5436
I1
sS'fine'
p5437
I6
sS'find'
p5438
I36
sS'Poor'
p5439
I3
sS'giant'
p5440
I1
sS'depended'
p5441
I1
sS'ruin'
p5442
I1
sS'19th'
p5443
I1
sS'Blockbusters'
p5444
I1
sS'idiots'
p5445
I6
sS'Involving'
p5446
I1
sS'sanitize'
p5447
I1
sS'8'
p5448
I4
sS'biddy'
p5449
I1
sS'villian'
p5450
I2
sS'Lamborghini'
p5451
I1
sS'wonks'
p5452
I1
sS'Diesel'
p5453
I2
sS'express'
p5454
I1
sS'cheaper'
p5455
I2
sS'breast'
p5456
I1
sS'Paxton'
p5457
I1
sS'rampage'
p5458
I1
sS'Suddenly'
p5459
I1
sS'Anyway'
p5460
I7
sS'common'
p5461
I7
sS'Female'
p5462
I1
sS'endeavor'
p5463
I1
sS'cynical'
p5464
I1
sS'G-rated'
p5465
I1
sS'Scorpion'
p5466
I2
sS'lion'
p5467
I1
sS'individual'
p5468
I1
sS'Martha--they'
p5469
I1
sS'feared'
p5470
I1
sS'degree'
p5471
I1
sS'expert'
p5472
I1
sS'binds'
p5473
I1
sS'potrayal'
p5474
I1
sS'please'
p5475
I16
sS'fans'
p5476
I11
sS'Richards'
p5477
I2
sS'burned'
p5478
I2
sS'TCB'
p5479
I1
sS'King'
p5480
I2
sS'Sea'
p5481
I1
sS'pisses'
p5482
I1
sS'jane'
p5483
I1
sS'1990ies'
p5484
I1
sS'premise'
p5485
I8
sS'shaman'
p5486
I2
sS'asthma'
p5487
I1
sS'Makes'
p5488
I2
sS'Maker'
p5489
I1
sS'pissed'
p5490
I2
sS'Thats'
p5491
I2
sS'Yea'
p5492
I4
sS'fan-'
p5493
I1
sS'foreign'
p5494
I3
sS'X-Files'
p5495
I1
sS'alot'
p5496
I8
sS'Wiseman'
p5497
I1
sS'focused'
p5498
I2
sS'Yes'
p5499
I9
sS'Yet'
p5500
I10
sS'screenplay'
p5501
I4
sS'point'
p5502
I30
sS'simple'
p5503
I6
sS'Hated'
p5504
I5
sS'simply'
p5505
I16
sS'headachey'
p5506
I1
sS'Shroowoman'
p5507
I1
sS'throughout'
p5508
I9
sS'expensive'
p5509
I1
sS'Brothers'
p5510
I1
sS'create'
p5511
I2
sS'trilogy'
p5512
I2
sS'creativity'
p5513
I5
sS'secret'
p5514
I1
sS'dropping'
p5515
I1
sS'pile'
p5516
I7
sS'buffonery'
p5517
I1
sS'meeting'
p5518
I2
sS'craweled'
p5519
I1
sS'slips'
p5520
I1
sS'gay'
p5521
I5
sS'HES'
p5522
I1
sS'Casino'
p5523
I2
sS'gas'
p5524
I3
sS'cruelty'
p5525
I1
sS'nihilistic'
p5526
I2
sS'understand'
p5527
I18
sS'gag'
p5528
I1
sS'raw'
p5529
I2
sS'solid'
p5530
I2
sS'foreshadowed'
p5531
I1
sS'bill'
p5532
I1
sS'grainy'
p5533
I1
sS'crutch'
p5534
I3
sS'sexuality'
p5535
I1
sS'College'
p5536
I2
sS'fun'
p5537
I21
sS'century'
p5538
I1
sS'swishing'
p5539
I1
sS'itself'
p5540
I9
sS'zion'
p5541
I1
sS'Easter'
p5542
I2
sS'Pfieffer'
p5543
I1
sS'monroe'
p5544
I1
sS'seduce'
p5545
I1
sS'wherein'
p5546
I1
sS'moviegoing'
p5547
I1
sS'Island'
p5548
I1
sS'proved'
p5549
I1
sS'Filmakers'
p5550
I1
sS'development'
p5551
I9
sS'brutalised'
p5552
I1
sS'praising'
p5553
I1
sS'husbands'
p5554
I1
sS'moment'
p5555
I8
sS'bulshit'
p5556
I1
sS'purpose'
p5557
I10
sS'Romanticized'
p5558
I1
sS'Christian'
p5559
I3
sS'UUUUUUUGGGGHHHHHH'
p5560
I1
sS'Coffin'
p5561
I1
sS'consulted'
p5562
I1
sS'gestures'
p5563
I1
sS'task'
p5564
I1
sS'spent'
p5565
I12
sS'swiss'
p5566
I1
sS'organization'
p5567
I1
sS'chemistry'
p5568
I6
sS'spend'
p5569
I4
sS'Considering'
p5570
I2
sS'Putrid'
p5571
I1
sS'ludicrous'
p5572
I4
sS'snow'
p5573
I1
sS'Ball'
p5574
I1
sS'Comedy'
p5575
I1
sS'letting'
p5576
I1
sS'superficial'
p5577
I1
sS'cut'
p5578
I5
sS'cup'
p5579
I1
sS'hated'
p5580
I32
sS'danger'
p5581
I1
sS'cuz'
p5582
I1
sS'Staar'
p5583
I1
sS'vague'
p5584
I2
sS'source'
p5585
I1
sS'Theorn'
p5586
I1
sS'Christopher'
p5587
I6
sS'bravery'
p5588
I1
sS'Haunting'
p5589
I1
sS'excited'
p5590
I3
sS'hates'
p5591
I5
sS'bin'
p5592
I2
sS'Sommers'
p5593
I1
sS'Did'
p5594
I9
sS'Die'
p5595
I1
sS'YEAH'
p5596
I1
sS'redeem'
p5597
I1
sS'bit'
p5598
I15
sS'Dis'
p5599
I1
sS'knock'
p5600
I1
sS'semi'
p5601
I1
sS'Stiller'
p5602
I7
sS'follows'
p5603
I4
sS'Cohen'
p5604
I1
sS'glove'
p5605
I1
sS'Cinematograpy'
p5606
I1
sS'jolted'
p5607
I1
sS'foolish'
p5608
I1
sS'Redeeming'
p5609
I1
sS'sequil'
p5610
I1
sS'often'
p5611
I4
sS'absolutely'
p5612
I18
sS'30s'
p5613
I1
sS'magnificent'
p5614
I1
sS'back'
p5615
I39
sS'extremist'
p5616
I1
sS'martial'
p5617
I2
sS'examples'
p5618
I3
sS'candle'
p5619
I1
sS'scale'
p5620
I2
sS'mean-sprited'
p5621
I1
sS'pet'
p5622
I1
sS'decision'
p5623
I1
sS'per'
p5624
I2
sS'bogus'
p5625
I1
sS'lard'
p5626
I1
sS'Nothing'
p5627
I9
sS'miraculous'
p5628
I1
sS'epic'
p5629
I3
sS'nose'
p5630
I1
sS'Boy'
p5631
I8
sS'patient'
p5632
I1
sS'FREAKIN'
p5633
I1
sS'oew'
p5634
I1
sS'costumes'
p5635
I4
sS'O'
p5636
I6
sS'David'
p5637
I2
sS'Davis'
p5638
I1
sS'Bob'
p5639
I6
sS'optimize'
p5640
I1
sS'Jimmy'
p5641
I2
sS'piles'
p5642
I2
sS'Glenn'
p5643
I1
sS'drama'
p5644
I8
sS'slams'
p5645
I1
sS'Dumb'
p5646
I1
sS'Dorothy'
p5647
I1
sS'Captain'
p5648
I1
sS'aliens'
p5649
I5
sS'steady'
p5650
I1
sS'exercises'
p5651
I1
sS'steven'
p5652
I1
sS'fans--he'
p5653
I1
sS'signifies'
p5654
I1
sS'few'
p5655
I29
sS'whatso'
p5656
I1
sS'doll'
p5657
I1
sS'forward'
p5658
I3
sS'translate'
p5659
I2
sS'Come'
p5660
I3
sS'invite'
p5661
I1
sS'Brutal'
p5662
I1
sS'boys'
p5663
I1
sS'OTHERS'
p5664
I1
sS'hopes'
p5665
I2
sS'directed'
p5666
I9
sS'Doing'
p5667
I2
sS'planet'
p5668
I5
sS'constant'
p5669
I2
sS'Perhaps'
p5670
I5
sS'Cross'
p5671
I2
sS'tatoo'
p5672
I1
sS'single'
p5673
I7
sS'cure'
p5674
I1
sS'Linda'
p5675
I1
sS'dragging'
p5676
I2
sS'%'
p5677
I2
sS'diector'
p5678
I1
sS'May'
p5679
I1
sS'cohesive'
p5680
I1
sS'EVERYTHING'
p5681
I1
sS'Israelis'
p5682
I1
sS'Mad'
p5683
I4
sS'Extremely'
p5684
I2
sS'incidences'
p5685
I1
sS'favourite'
p5686
I1
sS'liners'
p5687
I1
sS'prepared'
p5688
I1
sS'utterly'
p5689
I10
sS'charming'
p5690
I1
sS'neglectful'
p5691
I1
sS'implies'
p5692
I1
sS'overlooking'
p5693
I1
sS'vehicles'
p5694
I1
sS'amused'
p5695
I2
sS'2002'
p5696
I1
sS'2000'
p5697
I2
sS'2001'
p5698
I3
sS'Asian'
p5699
I2
sS'Gofigure'
p5700
I1
sS'Mel'
p5701
I11
sS'jason'
p5702
I4
sS'hint'
p5703
I1
sS'tombs'
p5704
I1
sS'Klumps'
p5705
I1
sS'vicious'
p5706
I1
sS'Neeson'
p5707
I3
sS'Someone'
p5708
I4
sS'drive-in'
p5709
I1
sS'Bonds'
p5710
I1
sS'Axelrod2003'
p5711
I1
sS'masculine'
p5712
I1
sS'redemptive'
p5713
I1
sS'SUCKED'
p5714
I4
sS'presently'
p5715
I1
sS'putting'
p5716
I5
sS'Levy'
p5717
I1
sS'severely'
p5718
I2
sS'doggy'
p5719
I1
sS'False'
p5720
I1
sS'shock'
p5721
I5
sS'kinsmen'
p5722
I2
sS'disemboweled'
p5723
I1
sS'havent'
p5724
I3
sS'Griffith'
p5725
I2
sS'sewage'
p5726
I1
sS'joey'
p5727
I1
sS'"Romeo'
p5728
I1
sS'MOVIE'
p5729
I9
sS'factor-'
p5730
I1
sS'Fast'
p5731
I1
sS'uncomfortable'
p5732
I1
sS'self-indulgent'
p5733
I3
sS'3D'
p5734
I2
sS'WHAT'
p5735
I8
sS'giving'
p5736
I4
sS'destoyed'
p5737
I1
sS'enjoyed'
p5738
I15
sS'military-type'
p5739
I1
sS'exercise'
p5740
I2
sS'body'
p5741
I4
sS'Plumber'
p5742
I1
sS'justification'
p5743
I1
sS'backstory'
p5744
I1
sS'sins'
p5745
I1
sS'packing'
p5746
I1
sS'others'
p5747
I11
sS'sing'
p5748
I2
sS'BlockBuster'
p5749
I1
sS'preamble'
p5750
I1
sS'irritating'
p5751
I3
sS'over-analyzers'
p5752
I1
sS'extreme'
p5753
I4
sS'Donkey'
p5754
I1
sS'talent'
p5755
I10
sS'Chinese'
p5756
I1
sS'30'
p5757
I9
sS'35'
p5758
I1
sS'Jennifer'
p5759
I9
sS'leadership'
p5760
I1
sS'Big'
p5761
I3
sS'named'
p5762
I3
sS'crashing'
p5763
I2
sS'limp'
p5764
I1
sS'private'
p5765
I1
sS'Nick'
p5766
I1
sS'hrs'
p5767
I1
sS'scandal'
p5768
I1
sS'sermon'
p5769
I1
sS'Nice'
p5770
I3
sS'refers'
p5771
I1
sS'nauseated'
p5772
I1
sS'Driver'
p5773
I1
sS'nobel'
p5774
I1
sS'Katherine'
p5775
I1
sS'Basically'
p5776
I2
sS'Fi'
p5777
I1
sS'themselves'
p5778
I10
sS'JET'
p5779
I2
sS'train'
p5780
I3
sS'ashamed'
p5781
I11
sS'fooling'
p5782
I1
sS'ace'
p5783
I1
sS'f'
p5784
I9
sS'vaudeville'
p5785
I1
sS'one-'
p5786
I1
sS'Period'
p5787
I1
sS'unreal'
p5788
I3
sS'obvious'
p5789
I8
sS'praise'
p5790
I3
sS'Combining'
p5791
I1
sS'closing'
p5792
I2
sS'didnt'
p5793
I3
sS'Nicole'
p5794
I2
sS'Shining'
p5795
I1
sS'Tupac'
p5796
I2
sS'carwreck'
p5797
I1
sS'Jobeth'
p5798
I1
sS'Townshend'
p5799
I1
sS'yurelf'
p5800
I1
sS'bones'
p5801
I1
sS'Yo'
p5802
I1
sS'noises'
p5803
I1
sS'holds'
p5804
I1
sS'winners'
p5805
I1
sS'whatever-it-was'
p5806
I2
sS'stock'
p5807
I1
sS'buildings'
p5808
I1
sS'act'
p5809
I27
sS'Glorifying'
p5810
I1
sS'bothered'
p5811
I2
sS'bevvy'
p5812
I1
sS'chasing'
p5813
I1
sS'lines'
p5814
I13
sS'furious'
p5815
I1
sS'Raunchiness'
p5816
I1
sS'embarrassingly'
p5817
I1
sS'ricer'
p5818
I1
sS'predictible'
p5819
I1
sS'horny'
p5820
I1
sS'bunch'
p5821
I20
sS'tsk'
p5822
I1
sS'la'
p5823
I1
sS'll'
p5824
I33
sS'Director'
p5825
I1
sS'willing'
p5826
I3
sS'glossiest'
p5827
I1
sS'criminal'
p5828
I1
sS'theology'
p5829
I1
sS'dad'
p5830
I1
sS'PEPPER'
p5831
I1
sS'greater'
p5832
I1
sS'dam'
p5833
I1
sS'spell'
p5834
I1
sS'mention'
p5835
I5
sS'cutting'
p5836
I1
sS'courtroom'
p5837
I1
sS'Loves'
p5838
I1
sS'Robin'
p5839
I3
sS'stunts'
p5840
I2
sS'warned'
p5841
I5
sS'Dicaprio'
p5842
I1
sS'slacked'
p5843
I1
sS'overacts'
p5844
I1
sS'crudely'
p5845
I1
sS'Gary'
p5846
I3
sS'uninteresting'
p5847
I2
sS'Shrew'
p5848
I1
sS'From'
p5849
I9
sS'himself--and'
p5850
I1
sS'einstein'
p5851
I1
sS'sexual'
p5852
I9
sS'Occumm'
p5853
I1
sS'matt'
p5854
I2
sS'defend'
p5855
I1
sS'wholly'
p5856
I1
sS'scriptural'
p5857
I1
sS'math'
p5858
I1
sS'retrievel'
p5859
I1
sS'approached'
p5860
I1
sS'frank'
p5861
I1
sS'payroll'
p5862
I1
sS'fourteen'
p5863
I1
sS'retards'
p5864
I1
sS'bleed'
p5865
I1
sS'receipts'
p5866
I1
sS'interaction'
p5867
I1
sS'allies'
p5868
I1
sS'Grade'
p5869
I1
sS'automatic'
p5870
I1
sS'profanities'
p5871
I4
sS'retain'
p5872
I1
sS'invisible'
p5873
I3
sS'south'
p5874
I1
sS'Taming'
p5875
I1
sS'puppet'
p5876
I1
sS'reached'
p5877
I1
sS'Gethsemane'
p5878
I1
sS'sadly'
p5879
I1
sS'monkey'
p5880
I3
sS'vulgar'
p5881
I4
sS'chased'
p5882
I1
sS'lions'
p5883
I1
sS'cabin'
p5884
I1
sS'gear'
p5885
I1
sS'explanation'
p5886
I3
sS'nobody'
p5887
I2
sS'absent-minded'
p5888
I1
sS'televison'
p5889
I1
sS'Reds'
p5890
I1
sS'loved'
p5891
I5
sS'slack'
p5892
I1
sS'heh'
p5893
I1
sS'Universal'
p5894
I1
sS'flashed'
p5895
I1
sS'occassions'
p5896
I1
sS'circumspect'
p5897
I1
sS'loves'
p5898
I5
sS'lover'
p5899
I1
sS'Burton'
p5900
I1
sS'pretends'
p5901
I1
sS'horrendous'
p5902
I3
sS'comfortable'
p5903
I4
sS'Machine'
p5904
I1
sS'unlikely'
p5905
I1
sS'dumb-asses'
p5906
I1
sS'clunker'
p5907
I2
sS'dementia'
p5908
I1
sS'demonstration'
p5909
I1
sS'Pam'
p5910
I2
sS'Pan'
p5911
I1
sS'min'
p5912
I4
sS'Couple'
p5913
I3
sS'mid'
p5914
I2
sS'mix'
p5915
I2
sS'Betcha'
p5916
I1
sS'Glad'
p5917
I1
sS'unless'
p5918
I9
sS'alienation'
p5919
I1
sS'Without'
p5920
I1
sS'eight'
p5921
I1
sS'savaged'
p5922
I1
sS'peppered'
p5923
I1
sS'herman'
p5924
I1
sS'RIGHT'
p5925
I1
sS'lame-o'
p5926
I2
sS'Witherspoon'
p5927
I2
sS'downbeat'
p5928
I1
sS'Some'
p5929
I6
sS'normally'
p5930
I2
sS'Horror'
p5931
I4
sS'Bond'
p5932
I12
sS'Harry'
p5933
I8
sS'tearful'
p5934
I1
sS'supporter'
p5935
I1
sS'staff'
p5936
I1
sS'grabbed'
p5937
I1
sS'knowledge'
p5938
I2
sS'controls'
p5939
I1
sS'loutish'
p5940
I1
sS'Moo'
p5941
I1
sS'York'
p5942
I4
sS'communist'
p5943
I1
sS'inferior'
p5944
I1
sS'beat'
p5945
I4
sS'BUM'
p5946
I1
sS'bear'
p5947
I1
sS'travisty'
p5948
I1
sS'ahting'
p5949
I1
sS'calling'
p5950
I1
sS'shelling'
p5951
I1
sS'including'
p5952
I5
sS'fixed'
p5953
I2
sS'numbingly'
p5954
I1
sS'ocular'
p5955
I1
sS'LEAVE'
p5956
I1
sS'curiosity-since'
p5957
I1
sS'intensity'
p5958
I1
sS'Passion'
p5959
I3
sS'attempting'
p5960
I2
sS'Hatter'
p5961
I1
sS'routine'
p5962
I1
sS'unbelieveable'
p5963
I2
sS'third-rate'
p5964
I1
sS'Fairly'
p5965
I1
sS'antics'
p5966
I1
sS'S'
p5967
I4
sS'jackhammer'
p5968
I1
sS'Entirely'
p5969
I1
sS'summing'
p5970
I1
sS'Rate-It'
p5971
I1
sS'boloney'
p5972
I1
sS'instant'
p5973
I2
sS'joke'
p5974
I19
sS'Ta-ta'
p5975
I1
sS'equal'
p5976
I1
sS'attributed'
p5977
I1
sS'trips'
p5978
I1
sS'Yikes'
p5979
I1
sS'Beaver'
p5980
I1
sS'passing'
p5981
I2
sS'otherwise'
p5982
I7
sS'comment'
p5983
I11
sS'relevant'
p5984
I1
sS'predicable'
p5985
I1
sS'teasing'
p5986
I1
sS'laugh'
p5987
I22
sS'Temple'
p5988
I1
sS'fright'
p5989
I1
sS'tremendous'
p5990
I1
sS'copies'
p5991
I1
sS'devoting'
p5992
I1
sS'Llama'
p5993
I1
sS'ah'
p5994
I2
sS'upbeat'
p5995
I1
sS'Trouble'
p5996
I1
sS'cop'
p5997
I5
sS'Marlon'
p5998
I1
sS'caddy'
p5999
I1
sS'finished'
p6000
I2
sS'Honestly'
p6001
I2
sS'angles'
p6002
I2
sS'bull'
p6003
I1
sS'Jamal'
p6004
I1
sS'fellow'
p6005
I1
sS'plain'
p6006
I13
sS'appearance'
p6007
I1
sS'as'
p6008
I279
sS'value'
p6009
I7
sS'promotes'
p6010
I2
sS'Clockwork'
p6011
I3
sS'Recycled'
p6012
I1
sS'handwriting'
p6013
I1
sS'Blockbuster'
p6014
I2
sS'likable'
p6015
I3
sS'bicker'
p6016
I1
sS'almost'
p6017
I40
sS'blood'
p6018
I8
sS'squid'
p6019
I1
sS'helped'
p6020
I1
sS'Moron'
p6021
I1
sS'partner'
p6022
I1
sS'bloodless'
p6023
I1
sS'superheroes'
p6024
I1
sS'portray'
p6025
I2
sS'Wouldn'
p6026
I1
sS'Garden'
p6027
I1
sS'GAY'
p6028
I2
sS')'
p6029
I196
sS'SON'
p6030
I1
sS'curiousity'
p6031
I1
sS'Prettily'
p6032
I1
sS'Wicked'
p6033
I1
sS'novels'
p6034
I1
sS'reporting'
p6035
I2
sS'Dawn'
p6036
I1
sS'clips'
p6037
I1
sS'center'
p6038
I1
sS'weapon'
p6039
I1
sS'thought'
p6040
I65
sS'DareDevil'
p6041
I1
sS'redeemable'
p6042
I1
sS'sets'
p6043
I3
sS'position'
p6044
I2
sS'Total'
p6045
I2
sS'Adam'
p6046
I23
sS'LOVED'
p6047
I1
sS'fixated'
p6048
I1
sS'coaster'
p6049
I1
sS'humdrum'
p6050
I1
sS'DiCaprio'
p6051
I1
sS'domestic'
p6052
I1
sS'underlying'
p6053
I1
sS'Fourth'
p6054
I1
sS'tone'
p6055
I1
sS'abolish'
p6056
I1
sS'flashlight'
p6057
I1
sS'ads'
p6058
I3
sS'repetitious'
p6059
I1
sS'effin'
p6060
I1
sS'Friday'
p6061
I6
sS'favorly'
p6062
I1
sS'add'
p6063
I5
sS'Taliban'
p6064
I2
sS'destroy'
p6065
I2
sS'ought'
p6066
I2
sS'tests'
p6067
I1
sS'articles'
p6068
I1
sS're-arranged'
p6069
I1
sS'judiciary'
p6070
I1
sS'Tarantino'
p6071
I3
sS'like'
p6072
I238
sS'success'
p6073
I4
sS'Wayans'
p6074
I2
sS'profound'
p6075
I2
sS'admitted'
p6076
I1
sS'chick'
p6077
I7
sS'stupedist'
p6078
I1
sS'works'
p6079
I6
sS'maudlin'
p6080
I1
sS'classical'
p6081
I1
sS'hair'
p6082
I2
sS'proper'
p6083
I1
sS'mean-natured'
p6084
I1
sS'happens'
p6085
I8
sS'Mike'
p6086
I2
sS'unfunny'
p6087
I13
sS'corpse'
p6088
I1
sS'shelter'
p6089
I1
sS'masked'
p6090
I1
sS'assuming'
p6091
I3
sS'screwed'
p6092
I4
sS'SCARY'
p6093
I1
sS'thinly'
p6094
I1
sS'noise'
p6095
I1
sS'dectective'
p6096
I1
sS'slight'
p6097
I1
sS'lessens'
p6098
I1
sS'host'
p6099
I2
sS'Frammed'
p6100
I1
sS'although'
p6101
I3
sS'worthy'
p6102
I4
sS'digusting'
p6103
I1
sS'gifts'
p6104
I1
sS'about'
p6105
I219
sS'actual'
p6106
I8
sS'Raging'
p6107
I1
sS'certainty'
p6108
I1
sS'introduces'
p6109
I2
sS'Latifah'
p6110
I1
sS'Gale'
p6111
I1
sS'Japan'
p6112
I2
sS'introduced'
p6113
I2
sS'obnoxiously'
p6114
I1
sS'Two'
p6115
I3
sS'doesnt'
p6116
I3
sS'female'
p6117
I8
sS'Woody'
p6118
I1
sS'1987'
p6119
I1
sS'legends'
p6120
I2
sS'1980'
p6121
I1
sS'rushed'
p6122
I1
sS'Hillary'
p6123
I2
sS'1988'
p6124
I1
sS'awarded'
p6125
I1
sS'Child'
p6126
I3
sS'biggest'
p6127
I11
sS'Chill'
p6128
I1
sS'AGAIN'
p6129
I1
sS'buy'
p6130
I12
sS'bus'
p6131
I3
sS'sequel'
p6132
I18
sS'but'
p6133
I334
sS'reminds'
p6134
I3
sS'plague'
p6135
I2
sS'bul'
p6136
I1
sS'bum'
p6137
I1
sS'editing'
p6138
I2
sS'Ive'
p6139
I2
sS'wise'
p6140
I1
sS'glory'
p6141
I1
sS'wish'
p6142
I10
sS'Walt'
p6143
I2
sS'mentioning'
p6144
I2
sS'minutes'
p6145
I49
sS'zellweger'
p6146
I1
sS'deaths'
p6147
I3
sS'FREEDOM'
p6148
I1
sS'pic'
p6149
I1
sS'pig'
p6150
I1
sS'periods'
p6151
I1
sS'shooting'
p6152
I3
sS'dressed'
p6153
I1
sS'44'
p6154
I1
sS'berating'
p6155
I1
sS'detail'
p6156
I3
sS'virtual'
p6157
I1
sS'badly-acted'
p6158
I1
sS'headmistress'
p6159
I1
sS'Know'
p6160
I1
sS'Altogether'
p6161
I1
sS'Waterboy'
p6162
I1
sS'dresses'
p6163
I1
sS'variation'
p6164
I2
sS'Rooney'
p6165
I2
sS'Act'
p6166
I1
sS'christians'
p6167
I1
sS'Stewart'
p6168
I1
sS'resolution'
p6169
I1
sS'fest'
p6170
I1
sS'Private'
p6171
I2
sS'vineger'
p6172
I1
sS'Sleep'
p6173
I1
sS'yell'
p6174
I1
sS'cookbook'
p6175
I1
sS'8th'
p6176
I1
sS'limited'
p6177
I3
sS'LIFE'
p6178
I1
sS'Speilberg'
p6179
I2
sS'suspenseful'
p6180
I2
sS'sleep'
p6181
I6
sS'martinis'
p6182
I1
sS'liar'
p6183
I1
sS'Communist'
p6184
I1
sS'hate'
p6185
I43
sS'poorly'
p6186
I15
sS'MUCH'
p6187
I2
sS'whatsoever'
p6188
I9
sS'under'
p6189
I8
sS'Nasty'
p6190
I1
sS'pride'
p6191
I1
sS'regrets'
p6192
I1
sS'Nearly'
p6193
I1
sS'@'
p6194
I1
sS'exxcept'
p6195
I1
sS'risk'
p6196
I1
sS'B-movie'
p6197
I1
sS'every'
p6198
I33
sS'jack'
p6199
I1
sS'messy'
p6200
I1
sS'Henry'
p6201
I2
sS'GO'
p6202
I1
sS'anemic'
p6203
I1
sS'encounter'
p6204
I1
sS'Origin'
p6205
I1
sS'school'
p6206
I11
sS'ovation'
p6207
I1
sS'conceive'
p6208
I1
sS'regret"'
p6209
I1
sS'Caesar'
p6210
I1
sS'J-LO'
p6211
I1
sS'soundtracks'
p6212
I1
sS'Go'
p6213
I7
sS'harrier'
p6214
I1
sS'enjoy'
p6215
I19
sS'leaders'
p6216
I1
sS'Nightmare'
p6217
I2
sS'guidelines'
p6218
I1
sS'enjot'
p6219
I1
sS'surrounding'
p6220
I1
sS'street'
p6221
I3
sS'n'
p6222
I4
sS'blue'
p6223
I3
sS'hide'
p6224
I2
sS'Completley'
p6225
I1
sS'selected'
p6226
I1
sS'revolves'
p6227
I1
sS'poison'
p6228
I1
sS'Aaaarghhhh'
p6229
I1
sS'revolved'
p6230
I1
sS'kicked'
p6231
I4
sS'hundreds'
p6232
I2
sS'studio'
p6233
I1
sS'aftermath'
p6234
I1
sS'digits'
p6235
I1
sS'voice'
p6236
I5
sS'NICER'
p6237
I1
sS'aia'
p6238
I1
sS'leaves'
p6239
I4
sS'changed'
p6240
I5
sS'Engaging'
p6241
I1
sS'changes'
p6242
I3
sS'punishment'
p6243
I2
sS'swearing'
p6244
I1
sS'Petty'
p6245
I1
sS'iconoclasm'
p6246
I1
sS'conservatives'
p6247
I2
sS'Reloaded'
p6248
I1
sS'julia'
p6249
I1
sS'feelings'
p6250
I2
sS'roles'
p6251
I2
sS'swings'
p6252
I1
sS'Minority'
p6253
I1
sS'would'
p6254
I161
sS'hospital'
p6255
I3
sS'DIDN'
p6256
I1
sS'asses'
p6257
I1
sS'noting'
p6258
I1
sS'menopausal'
p6259
I1
sS'slaughtered'
p6260
I1
sS'breathe'
p6261
I1
sS'naive'
p6262
I1
sS'phony'
p6263
I2
sS'grief'
p6264
I2
sS'film-making'
p6265
I1
sS'outdated'
p6266
I1
sS'must'
p6267
I26
sS'shoot'
p6268
I7
sS'ma'
p6269
I2
sS'Crowe'
p6270
I1
sS'brandishing'
p6271
I1
sS'Poppins'
p6272
I1
sS'entertained'
p6273
I1
sS'my'
p6274
I181
sS'cussing'
p6275
I1
sS'culpability'
p6276
I1
sS'Jerry'
p6277
I6
sS'mayhem'
p6278
I1
sS'Lori'
p6279
I1
sS'Lord'
p6280
I3
sS'keep'
p6281
I14
sS'attract'
p6282
I1
sS'end'
p6283
I37
sS'supertrash'
p6284
I1
sS'ONE'
p6285
I3
sS'Caribeean'
p6286
I1
sS'writers'
p6287
I9
sS'III'
p6288
I1
sS'Mariah'
p6289
I2
sS'badly'
p6290
I6
sS'Essentially'
p6291
I1
sS'description'
p6292
I2
sS'WOULD'
p6293
I1
sS'claptrap'
p6294
I1
sS'mess'
p6295
I5
sS'protagonists'
p6296
I2
sS'delicacy'
p6297
I1
sS'Oooo'
p6298
I1
sS'jumping'
p6299
I3
sS'Japanese'
p6300
I4
sS'ultimately'
p6301
I1
sS'complexity'
p6302
I1
sS'mucking'
p6303
I1
sS'upside'
p6304
I1
sS'Lloyd'
p6305
I1
sS'Dracula'
p6306
I4
sS'executed'
p6307
I6
sS'Hills'
p6308
I1
sS'renne'
p6309
I1
sS'over'
p6310
I48
sS'becaus'
p6311
I1
sS'Revenge'
p6312
I1
sS'sickly'
p6313
I1
sS'vito'
p6314
I1
sS'strangle'
p6315
I3
sS'trama'
p6316
I1
sS'Dahl'
p6317
I2
sS'hypocrisy'
p6318
I1
sS'Baaaaad'
p6319
I1
sS'expectations'
p6320
I4
sS'Here'
p6321
I6
sS'writing'
p6322
I12
sS'destroyed'
p6323
I5
sS'tramp'
p6324
I1
sS'compelling'
p6325
I5
sS'stifling'
p6326
I1
sS'Kids'
p6327
I1
sS'Hellooooo'
p6328
I1
sS'Goldie'
p6329
I1
sS'misdirection'
p6330
I1
sS'rental'
p6331
I5
sS'shadows'
p6332
I1
sS'30-year'
p6333
I1
sS'several'
p6334
I9
sS'Liberal'
p6335
I1
sS'explode'
p6336
I1
sS'victory'
p6337
I2
sS'each'
p6338
I12
sS'Krik'
p6339
I1
sS'blinded'
p6340
I1
sS'Elton'
p6341
I1
sS'Humor'
p6342
I1
sS'dorkass'
p6343
I1
sS'joined'
p6344
I1
sS'Anyone'
p6345
I13
sS'Carrey'
p6346
I8
sS'creepier-the'
p6347
I1
sS'driving'
p6348
I2
sS'god'
p6349
I8
sS'psychic'
p6350
I1
sS'two-hour'
p6351
I1
sS'William'
p6352
I3
sS'laid'
p6353
I3
sS'got'
p6354
I56
sS'Eeek'
p6355
I1
sS'Leatherface'
p6356
I1
sS'free'
p6357
I6
sS'Roth'
p6358
I1
sS'masterpiece'
p6359
I3
sS'rain'
p6360
I1
sS'W'
p6361
I2
sS'wanted'
p6362
I21
sS'Mickey'
p6363
I1
sS'pseudo-art'
p6364
I1
sS'BTW'
p6365
I1
sS'sods'
p6366
I1
sS'Carri'
p6367
I1
sS'correctness'
p6368
I1
sS'days'
p6369
I6
sS'teeny-bopper'
p6370
I1
sS'heck'
p6371
I5
sS'hecl'
p6372
I1
sS'hopeless'
p6373
I1
sS'TIME'
p6374
I4
sS'Carry'
p6375
I1
sS'differnt'
p6376
I1
sS'onto'
p6377
I1
sS'already'
p6378
I17
sS'Working'
p6379
I1
sS'rank'
p6380
I1
sS'hearing'
p6381
I2
sS'rant'
p6382
I1
sS'philosophical'
p6383
I1
sS'palpable'
p6384
I1
sS'blunts'
p6385
I1
sS'insisted'
p6386
I1
sS'Congress'
p6387
I2
sS'their'
p6388
I65
sS'Academy'
p6389
I3
sS'top'
p6390
I12
sS'fiction'
p6391
I3
sS'too'
p6392
I76
sS'tom'
p6393
I3
sS'insightful'
p6394
I1
sS'urban'
p6395
I2
sS'murder'
p6396
I3
sS'airwaves'
p6397
I1
sS'tool'
p6398
I2
sS'serve'
p6399
I1
sS'took'
p6400
I12
sS'Sunset'
p6401
I1
sS'western'
p6402
I1
sS'nudging'
p6403
I1
sS'stinkers'
p6404
I1
sS'deceiptful'
p6405
I1
sS'mercifully'
p6406
I1
sS'hopping'
p6407
I1
sS'frankly'
p6408
I2
sS'Salma'
p6409
I1
sS'bloated'
p6410
I1
sS'zero'
p6411
I4
sS'tourists'
p6412
I1
sS'Univ'
p6413
I1
sS'seminal'
p6414
I1
sS'bridge'
p6415
I3
sS'donkey'
p6416
I3
sS'fashion'
p6417
I4
sS'Hitchens'
p6418
I1
sS'Gere'
p6419
I1
sS'ran'
p6420
I2
sS'talking'
p6421
I10
sS'rat'
p6422
I1
sS'rap'
p6423
I3
sS'relatively'
p6424
I1
sS'triangle'
p6425
I3
sS'1964'
p6426
I2
sS'thoroughly'
p6427
I1
sS'-'
p6428
I72
sS'isolated'
p6429
I1
sS'1962'
p6430
I1
sS'laughed'
p6431
I14
sS'CAME'
p6432
I1
sS'though'
p6433
I42
sS'denominator'
p6434
I3
sS'plenty'
p6435
I2
sS'explosives'
p6436
I1
sS'prostitute'
p6437
I1
sS'late-night'
p6438
I1
sS'flop'
p6439
I2
sS'Garfield'
p6440
I7
sS'reputation'
p6441
I1
sS'Anaconda'
p6442
I1
sS'entertaining'
p6443
I12
sS'Kutcher'
p6444
I2
sS'Its'
p6445
I7
sS'NICE'
p6446
I1
sS'saga'
p6447
I1
sS'radio'
p6448
I1
sS'musicals'
p6449
I1
sS'earth'
p6450
I4
sS'bail'
p6451
I1
sS'spite'
p6452
I1
sS'situations'
p6453
I3
sS'spits'
p6454
I1
sS'photo'
p6455
I1
sS'"You'
p6456
I1
sS'uhhh'
p6457
I1
sS'watch'
p6458
I84
sS'geek'
p6459
I2
sS'1941'
p6460
I1
sS'despite'
p6461
I4
sS'report'
p6462
I1
sS'Moore'
p6463
I13
sS'goodbyes'
p6464
I1
sS'idiotic'
p6465
I8
sS'devil-angel'
p6466
I1
sS'twice'
p6467
I3
sS'shots'
p6468
I8
sS'ruins'
p6469
I1
sS'thanks'
p6470
I7
sS'Glen'
p6471
I1
sS'presuming'
p6472
I1
sS'nut'
p6473
I2
sS'inapt'
p6474
I1
sS'disturbing'
p6475
I4
sS'Depressing'
p6476
I1
sS'hopefully'
p6477
I1
sS'approach'
p6478
I2
sS'pee-wee'
p6479
I1
sS'Trek'
p6480
I10
sS'LOVE'
p6481
I1
sS'confusion'
p6482
I1
sS'Annoyer'
p6483
I1
sS'weak'
p6484
I14
sS'however'
p6485
I3
sS'boss'
p6486
I2
sS'Chevy'
p6487
I1
sS'wear'
p6488
I4
sS'news'
p6489
I2
sS'fault'
p6490
I1
sS'players'
p6491
I2
sS'games'
p6492
I3
sS'mildly'
p6493
I2
sS'faces'
p6494
I2
sS'hypocrites'
p6495
I2
sS'expense'
p6496
I1
sS'GIVE'
p6497
I2
sS'TVs'
p6498
I1
sS'defiantely'
p6499
I1
sS'comprehension'
p6500
I1
sS'trust'
p6501
I3
sS'comical'
p6502
I2
sS'bathroom'
p6503
I4
sS'Cavemen'
p6504
I1
sS'Lambert'
p6505
I1
sS'Southern'
p6506
I2
sS'been'
p6507
I71
sS'quickly'
p6508
I7
sS'confident'
p6509
I1
sS'beer'
p6510
I2
sS'belongs'
p6511
I2
sS'WERE'
p6512
I1
sS'expected'
p6513
I10
sS'captives'
p6514
I2
sS'Adams'
p6515
I1
sS'drugs'
p6516
I1
sS'catch'
p6517
I6
sS'Schwartzaneggar'
p6518
I1
sS'charecters'
p6519
I1
sS'humanity'
p6520
I4
sS'weren'
p6521
I9
sS'ugliest'
p6522
I1
sS'cracked'
p6523
I1
sS'natives'
p6524
I1
sS'Gross'
p6525
I3
sS'forgetable'
p6526
I1
sS'anthropomorphizing'
p6527
I1
sS'Bush'
p6528
I7
sS'experts'
p6529
I1
sS'experience'
p6530
I8
sS'HOPEFULLY'
p6531
I1
sS'Tell'
p6532
I1
sS'D'
p6533
I1
sS'suggest'
p6534
I4
sS'beside'
p6535
I1
sS'complex'
p6536
I2
sS'James'
p6537
I9
sS'reffering'
p6538
I1
sS'leftist'
p6539
I1
sS'misery'
p6540
I1
sS'characters'
p6541
I49
sS'mentions'
p6542
I1
sS'dozing'
p6543
I1
sS'Airplane'
p6544
I1
sS'darned'
p6545
I1
sS'narrow'
p6546
I1
sS'charlie'
p6547
I1
sS'possessed'
p6548
I1
sS'werewolves'
p6549
I1
sS'Hilton'
p6550
I1
sS'greatest'
p6551
I6
sS'mother'
p6552
I13
sS'Lots'
p6553
I1
sS'laptop'
p6554
I1
sS'starting'
p6555
I2
sS'bugged'
p6556
I1
sS'thumbs'
p6557
I4
sS'teenaged'
p6558
I1
sS'Flint'
p6559
I1
sS'teenager'
p6560
I1
sS'pitiful'
p6561
I1
sS'Munsters'
p6562
I1
sS'tolerable'
p6563
I2
sS'trashed'
p6564
I2
sS'gave'
p6565
I20
sS'actresses'
p6566
I5
sS'SPace'
p6567
I1
sS'casting'
p6568
I5
sS'salacious'
p6569
I1
sS'SUCKS'
p6570
I4
sS'right-wing'
p6571
I1
sS'McKennitt'
p6572
I1
sS'advanced'
p6573
I1
sS'apart'
p6574
I3
sS'Heart'
p6575
I1
sS'Bomb'
p6576
I1
sS'brutality'
p6577
I2
sS'gifted'
p6578
I1
sS'50'
p6579
I5
sS'peeves'
p6580
I1
sS'overrated'
p6581
I14
sS'digimon'
p6582
I1
sS'hung'
p6583
I1
sS'MacGuire'
p6584
I1
sS'stereotype'
p6585
I1
sS'successfully'
p6586
I1
sS'excerpt'
p6587
I1
sS'clubs'
p6588
I1
sS'Much'
p6589
I2
sS'election'
p6590
I1
sS'displeasure'
p6591
I1
sS'escape'
p6592
I1
sS'smarmy'
p6593
I2
sS'HA'
p6594
I1
sS'HE'
p6595
I3
sS'non-commissioned'
p6596
I1
sS'Cuba'
p6597
I1
sS'ice'
p6598
I1
sS'everything'
p6599
I18
sS'Chris'
p6600
I6
sS'Ha'
p6601
I1
sS'He'
p6602
I46
sS'disappeared'
p6603
I2
sS'discount'
p6604
I1
sS'dissapointment'
p6605
I3
sS'Emperor'
p6606
I2
sS'permitted'
p6607
I1
sS'garnished'
p6608
I1
sS'chapter'
p6609
I1
sS'Fair'
p6610
I1
sS'cowboy'
p6611
I1
sS'attacks'
p6612
I1
sS'choke'
p6613
I1
sS'surround'
p6614
I1
sS'dinner'
p6615
I2
sS'plus'
p6616
I4
sS'Still'
p6617
I4
sS'Best'
p6618
I4
sS'face-in-the-water'
p6619
I1
sS'Hong'
p6620
I1
sS'presence'
p6621
I1
sS'obscene'
p6622
I2
sS'ppl'
p6623
I1
sS'dissenting'
p6624
I1
sS'rounds'
p6625
I1
sS'FREAKING'
p6626
I1
sS'psychos'
p6627
I1
sS'rely'
p6628
I1
sS'sunlight'
p6629
I1
sS'class'
p6630
I2
sS'Fellini'
p6631
I1
sS'extrememly'
p6632
I1
sS'purposely'
p6633
I1
sS'head'
p6634
I10
sS'abysmal'
p6635
I2
sS'attempted'
p6636
I1
sS'corleone'
p6637
I1
sS'uuuh'
p6638
I1
sS'hear'
p6639
I10
sS'heap'
p6640
I4
sS'removed'
p6641
I2
sS'versions'
p6642
I2
sS'heartwarming'
p6643
I1
sS'bargain'
p6644
I2
sS'ruined'
p6645
I12
sS'camaro'
p6646
I1
sS'paging'
p6647
I1
sS'mis-cast'
p6648
I1
sS'nerdy'
p6649
I1
sS'more'
p6650
I95
sS'Hudson'
p6651
I3
sS'CHARACTER'
p6652
I1
sS'shined'
p6653
I1
sS'Amistad'
p6654
I1
sS'sometime'
p6655
I1
sS'Pop'
p6656
I1
sS'believable'
p6657
I7
sS'annoying'
p6658
I24
sS'check'
p6659
I4
sS'blatantly'
p6660
I2
sS'looked'
p6661
I14
sS'Monster'
p6662
I1
sS'no'
p6663
I155
sS'commercials'
p6664
I2
sS'when'
p6665
I108
sS'til'
p6666
I1
sS'tooooo'
p6667
I1
sS'setting'
p6668
I6
sS'nt'
p6669
I1
sS'eternity'
p6670
I3
sS'picture'
p6671
I12
sS'EST'
p6672
I1
sS'trailers'
p6673
I4
sS'Blvd'
p6674
I1
sS'"Rosemary'
p6675
I1
sS'flushed'
p6676
I1
sS'Pryce'
p6677
I1
sS'younger'
p6678
I5
sS'faster'
p6679
I3
sS'1800'
p6680
I1
sS'Dumas'
p6681
I1
sS'serious'
p6682
I6
sS'Drove'
p6683
I1
sS'coach'
p6684
I1
sS'Bigalow'
p6685
I1
sS'Tsk'
p6686
I1
sS'remarkable'
p6687
I3
sS'impression'
p6688
I6
sS'Mitzi'
p6689
I1
sS'focus'
p6690
I4
sS'leads'
p6691
I4
sS'MOSNTERS'
p6692
I1
sS'comments'
p6693
I1
sS'Gets'
p6694
I1
sS'empathize'
p6695
I1
sS'row'
p6696
I1
sS'tourchure'
p6697
I1
sS'1940'
p6698
I1
sS'Judi'
p6699
I1
sS'Truly'
p6700
I5
sS'chances'
p6701
I1
sS'charge'
p6702
I1
sS'asking'
p6703
I3
sS'Day'
p6704
I6
sS'abomanation'
p6705
I1
sS'Anything'
p6706
I2
sS'sequal'
p6707
I2
sS'clich'
p6708
I1
sS'sloppy'
p6709
I3
sS'intolerant'
p6710
I1
sS'Gimme'
p6711
I2
sS'feel-good'
p6712
I1
sS'cool'
p6713
I19
sS'clouds'
p6714
I1
sS'impressive'
p6715
I3
sS'best-'
p6716
I1
sS'level'
p6717
I3
sS'brother'
p6718
I1
sS'standards'
p6719
I1
sS'science'
p6720
I3
sS'quick'
p6721
I5
sS'Grace'
p6722
I1
sS'says'
p6723
I15
sS'porn'
p6724
I1
sS'trend'
p6725
I4
sS'Mindless'
p6726
I2
sS'Jane'
p6727
I2
sS'spin-off'
p6728
I1
sS'chicken'
p6729
I1
sS'Burkittsville'
p6730
I1
sS'solemate'
p6731
I1
sS'business'
p6732
I2
sS'goes'
p6733
I15
sS'Reeves'
p6734
I2
sS'Duel'
p6735
I1
sS'Age'
p6736
I1
sS'learn'
p6737
I6
sS'water'
p6738
I4
sS'witch'
p6739
I6
sS'Amanda'
p6740
I2
sS'Bolero'
p6741
I1
sS'fancy-pants'
p6742
I1
sS'hadn'
p6743
I1
sS'guilty'
p6744
I2
sS'proud'
p6745
I3
sS'prude'
p6746
I1
sS'weird'
p6747
I6
sS'sleak'
p6748
I1
sS'humour'
p6749
I5
sS'Ariel'
p6750
I1
sS'Catholicism'
p6751
I2
sS'gruesomeness'
p6752
I1
sS'tediouse'
p6753
I1
sS'Therefore'
p6754
I1
sS'1st'
p6755
I1
sS'Jerky'
p6756
I2
sS'crisis'
p6757
I1
sS'Sanders'
p6758
I1
sS'handled'
p6759
I1
sS'wrecking'
p6760
I1
sS'sports'
p6761
I2
sS'msn'
p6762
I1
sS'reductive'
p6763
I1
sS'gravely'
p6764
I2
sS'dangrous'
p6765
I1
sS'today'
p6766
I8
sS'pseudo-historical'
p6767
I1
sS'These'
p6768
I6
sS'well-lit'
p6769
I1
sS'Eve'
p6770
I1
sS'demonized'
p6771
I1
sS'Summary'
p6772
I1
sS'drown'
p6773
I1
sS'dismal'
p6774
I1
sS'Time'
p6775
I1
sS'cases'
p6776
I1
sS'sheds'
p6777
I1
sS'Family'
p6778
I1
sS'"remake"'
p6779
I1
sS'Soul'
p6780
I1
sS'laughter'
p6781
I2
sS'performer'
p6782
I1
sS'nursing'
p6783
I1
sS'figure'
p6784
I8
sS'downfall'
p6785
I1
sS'critic'
p6786
I1
sS'dropped'
p6787
I5
sS'Irishgit'
p6788
I1
sS'BRAVE'
p6789
I1
sS'Blacula'
p6790
I1
sS'1'
p6791
I34
sS'speaks'
p6792
I1
sS'unbelievable'
p6793
I8
sS'Natalie'
p6794
I2
sS'crashes'
p6795
I1
sS'huge'
p6796
I10
sS'FINALLY'
p6797
I1
sS'Powers'
p6798
I4
sS'unbelievably'
p6799
I2
sS'classroom'
p6800
I1
sS'Banderas'
p6801
I3
sS'stupidly'
p6802
I1
sS'amuse'
p6803
I1
sS'Ferrell'
p6804
I1
sS'syndicated'
p6805
I1
sS'KIND'
p6806
I1
sS'representation'
p6807
I1
sS'refund'
p6808
I1
sS'joins'
p6809
I1
sS'Satanist'
p6810
I1
sS'mainly'
p6811
I3
sS'primitive'
p6812
I1
sS'accolades'
p6813
I2
sS'White'
p6814
I9
sS'worship'
p6815
I1
sS'FILM'
p6816
I2
sS'blocked'
p6817
I1
sS'apes'
p6818
I4
sS'cheerleaders'
p6819
I4
sS'offers'
p6820
I1
sS'Using'
p6821
I1
sS'hanks'
p6822
I2
sS'happened'
p6823
I14
sS'freagin'
p6824
I1
sS'Cable'
p6825
I1
sS'Rome'
p6826
I1
sS'grows'
p6827
I1
sS'feathered'
p6828
I1
sS'aaaahhhhhhh'
p6829
I1
sS'gushing'
p6830
I2
sS'execute'
p6831
I1
sS'name'
p6832
I14
sS'riceburner'
p6833
I1
sS'Mucus'
p6834
I1
sS'terd'
p6835
I1
sS'realistic'
p6836
I3
sS'realism'
p6837
I1
sS'Crapola'
p6838
I1
sS'sprinkle'
p6839
I1
sS'gaps'
p6840
I1
sS'begun'
p6841
I1
sS'Save'
p6842
I8
sS'obsession'
p6843
I2
sS'plans'
p6844
I1
sS'Spielberg'
p6845
I5
sS'MADE'
p6846
I1
sS'concur'
p6847
I1
sS'Shakespearian'
p6848
I1
sS'overflowing'
p6849
I2
sS'attended'
p6850
I1
sS'theory'
p6851
I2
sS'boobs'
p6852
I3
sS'previews'
p6853
I6
sS'explorers'
p6854
I1
sS'Godspell'
p6855
I1
sS'flare'
p6856
I1
sS'motion'
p6857
I3
sS'turn'
p6858
I9
sS'place'
p6859
I14
sS'turf'
p6860
I1
sS'TV-G'
p6861
I1
sS'turd'
p6862
I2
sS'childhood'
p6863
I1
sS'1000'
p6864
I2
sS'origin'
p6865
I1
sS'suspend'
p6866
I1
sS'Thrill-less'
p6867
I1
sS'Kelly'
p6868
I1
sS'Stars'
p6869
I2
sS'pokemon'
p6870
I1
sS'millions'
p6871
I3
sS'rented'
p6872
I7
sS'gig'
p6873
I1
sS'given'
p6874
I10
sS'necessarily'
p6875
I2
sS'trillion'
p6876
I3
sS'plastic'
p6877
I2
sS'SEE'
p6878
I9
sS'terrifying'
p6879
I1
sS'Such'
p6880
I1
sS'white'
p6881
I14
sS'circa'
p6882
I1
sS'screencaps'
p6883
I1
sS'gives'
p6884
I4
sS'face-in-the-sand'
p6885
I1
sS'six-pack'
p6886
I2
sS'Kedward'
p6887
I2
sS'Brendan'
p6888
I1
sS'Bruckheimer'
p6889
I2
sS'huh'
p6890
I1
sS'IMO'
p6891
I1
sS'stylized'
p6892
I1
sS'released'
p6893
I3
sS'Enterprise'
p6894
I1
sS'ill-advised'
p6895
I1
sS'copy'
p6896
I6
sS'Tuna'
p6897
I1
sS'population'
p6898
I1
sS'Battlefield'
p6899
I4
sS'Love'
p6900
I9
sS'unfortunately'
p6901
I1
sS'require'
p6902
I1
sS'r'
p6903
I2
sS'Fake'
p6904
I1
sS'dissapointed'
p6905
I3
sS'and'
p6906
I1241
sS'Clint'
p6907
I1
sS'scatalogical'
p6908
I1
sS'suspense'
p6909
I10
sS'rent'
p6910
I15
sS'any'
p6911
I104
sS'ideas'
p6912
I4
sS'animation'
p6913
I7
sS'urge'
p6914
I1
sS'sure'
p6915
I19
sS'tornado'
p6916
I4
sS'GOD'
p6917
I1
sS'Didn'
p6918
I4
sS'falls'
p6919
I5
sS'Soderburgh'
p6920
I1
sS'GOT'
p6921
I1
sS'overlooked'
p6922
I1
sS'definatly'
p6923
I2
sS'TURKEY'
p6924
I1
sS'Whoever'
p6925
I1
sS'considered'
p6926
I9
sS'later'
p6927
I9
sS'X-File'
p6928
I1
sS'Audrey'
p6929
I1
sS'senior'
p6930
I2
sS'masturbation'
p6931
I1
sS'uninterested'
p6932
I1
sS'Your'
p6933
I1
sS'cheat'
p6934
I1
sS'cheap'
p6935
I10
sS'nadir'
p6936
I1
sS'genius'
p6937
I1
sS'Saddam'
p6938
I1
sS'written'
p6939
I16
sS'crime'
p6940
I1
sS'explicitly'
p6941
I1
sS'believing'
p6942
I3
sS'poonessity'
p6943
I1
sS'sappiness'
p6944
I1
sS'DuBelle'
p6945
I1
sS'H'
p6946
I3
sS'Violence'
p6947
I1
sS'Gwendolyn'
p6948
I1
sS'lighter'
p6949
I1
sS'distortion'
p6950
I1
sS'flicks'
p6951
I6
sS'freaking'
p6952
I3
sS'regarding'
p6953
I2
sS'dicktatorships'
p6954
I1
sS'dramas'
p6955
I1
sS'Kong'
p6956
I1
sS'Denise'
p6957
I2
sS'jokes'
p6958
I25
sS'believeable'
p6959
I1
sS'reveals'
p6960
I1
sS'Colonel'
p6961
I1
sS'connections'
p6962
I1
sS'college'
p6963
I1
sS'ignores'
p6964
I1
sS'parking'
p6965
I1
sS'Snipes'
p6966
I2
sS'Voyager'
p6967
I1
sS'voluntary'
p6968
I1
sS'ways'
p6969
I3
sS'subsequent'
p6970
I1
sS'review'
p6971
I4
sS'weapons'
p6972
I2
sS'outside'
p6973
I2
sS'Texas'
p6974
I4
sS'surfaced'
p6975
I1
sS'unappealing'
p6976
I2
sS'Frampton'
p6977
I2
sS'originated'
p6978
I1
sS'Appalling'
p6979
I1
sS'adpatations'
p6980
I1
sS'Dench'
p6981
I1
sS'coma'
p6982
I2
sS'bigtime'
p6983
I1
sS'come'
p6984
I28
sS'stupidest'
p6985
I7
sS'outway'
p6986
I1
sS'contract'
p6987
I1
sS'officer'
p6988
I1
sS'DONT'
p6989
I4
sS'leftists'
p6990
I1
sS'berry'
p6991
I1
sS'Goodfellas'
p6992
I1
sS'duty'
p6993
I2
sS'afterwards'
p6994
I1
sS'color'
p6995
I1
sS'pot'
p6996
I1
sS'period'
p6997
I5
sS'pop'
p6998
I3
sS'Note'
p6999
I1
sS'61'
p7000
I1
sS'pseudo-classic'
p7001
I1
sS'assertions'
p7002
I1
sS'babbling'
p7003
I1
sS'69'
p7004
I1
sS'bizarre'
p7005
I2
sS'kungfu'
p7006
I1
sS'flair--not'
p7007
I1
sS'turkey'
p7008
I8
sS'Beauty'
p7009
I2
sS'filmmakers'
p7010
I2
sS'But'
p7011
I52
sS'stucco'
p7012
I1
sS'subscribes'
p7013
I1
sS'helicopter'
p7014
I2
sS'featuring'
p7015
I1
sS'hardly'
p7016
I5
sS'Bug'
p7017
I1
sS'Kranks'
p7018
I1
sS'Gospels'
p7019
I1
sS'direction'
p7020
I12
sS'tasteless'
p7021
I2
sS'designed'
p7022
I1
sS'Together'
p7023
I1
sS'Madame'
p7024
I1
sS'coherently'
p7025
I1
sS'WAY'
p7026
I5
sS'WAS'
p7027
I5
sS'dribble'
p7028
I1
sS'pilot'
p7029
I8
sS'case'
p7030
I9
sS'myself'
p7031
I23
sS'cash'
p7032
I3
sS'arnold'
p7033
I2
sS'cast'
p7034
I18
sS'Colors'
p7035
I1
sS'dorks'
p7036
I1
sS'50s'
p7037
I1
sS'Slow'
p7038
I2
sS'someone'
p7039
I26
sS'author'
p7040
I1
sS'XXX'
p7041
I1
sS'trip'
p7042
I4
sS'Leguizamo'
p7043
I1
sS'html'
p7044
I2
sS'reminder'
p7045
I1
sS'events'
p7046
I7
sS'moronic'
p7047
I6
sS'hermit'
p7048
I3
sS'week'
p7049
I2
sS'IX'
p7050
I1
sS'persona'
p7051
I1
sS'Jodie'
p7052
I2
sS'IQ'
p7053
I4
sS'IS'
p7054
I4
sS'drives'
p7055
I2
sS'weed'
p7056
I1
sS'II'
p7057
I7
sS'devoid'
p7058
I4
sS'drivel'
p7059
I6
sS'puke'
p7060
I4
sS'Saltzman'
p7061
I1
sS'IN'
p7062
I6
sS'Dream'
p7063
I1
sS'cartoon'
p7064
I7
sS'faithful'
p7065
I1
sS'relies'
p7066
I1
sS'Is'
p7067
I14
sS'Dude-This'
p7068
I1
sS'It'
p7069
I243
sS'melodramatic'
p7070
I3
sS'without'
p7071
I24
sS'tload'
p7072
I1
sS'In'
p7073
I37
sS'model'
p7074
I1
sS'reward'
p7075
I1
sS'hysteria'
p7076
I1
sS'Id'
p7077
I1
sS'bodies'
p7078
I2
sS'justify'
p7079
I2
sS'Pink'
p7080
I1
sS'trology'
p7081
I1
sS'United'
p7082
I1
sS'plotline'
p7083
I2
sS'tip'
p7084
I2
sS'actions'
p7085
I2
sS'risking'
p7086
I1
sS'violent'
p7087
I8
sS'kill'
p7088
I23
sS'polish'
p7089
I1
sS'facual'
p7090
I1
sS'captured'
p7091
I1
sS'halfway'
p7092
I2
sS'blow'
p7093
I4
sS'tim'
p7094
I1
sS'pornograhpy'
p7095
I1
sS'seems'
p7096
I20
sS'except'
p7097
I19
sS'lets'
p7098
I1
sS'scheduled'
p7099
I2
sS'mystery'
p7100
I3
sS'kills'
p7101
I6
sS'Many'
p7102
I1
sS'Terrible'
p7103
I15
sS'Terribly'
p7104
I2
sS'understandable--just'
p7105
I1
sS'accepted'
p7106
I2
sS'Talk'
p7107
I3
sS'action"'
p7108
I1
sS'snore'
p7109
I1
sS'Producer'
p7110
I1
sS'Bravo'
p7111
I1
sS'everytime'
p7112
I2
sS'Pie'
p7113
I4
sS'Something'
p7114
I3
sS'settler'
p7115
I1
sS'reduced'
p7116
I1
sS'joking'
p7117
I2
sS'West'
p7118
I2
sS'Since'
p7119
I2
sS'shortcoming'
p7120
I1
sS'snatched'
p7121
I1
sS'table'
p7122
I1
sS'redeeming'
p7123
I6
sS'provided'
p7124
I2
sS'mood'
p7125
I2
sS'teachings'
p7126
I2
sS'stops'
p7127
I2
sS'moon'
p7128
I1
sS'hipster'
p7129
I1
sS'nails'
p7130
I2
sS'stereotyped'
p7131
I1
sS'TRY'
p7132
I1
sS'neccessary'
p7133
I1
sS'Rock'
p7134
I6
sS'embarassing'
p7135
I2
sS'stereotypes'
p7136
I3
sS'on'
p7137
I274
sS'ol'
p7138
I2
sS'ok'
p7139
I6
sS'oh'
p7140
I11
sS'of'
p7141
I1263
sS'od'
p7142
I1
sS'creepers'
p7143
I1
sS'stand'
p7144
I10
sS'decent'
p7145
I10
sS'Goebbels'
p7146
I1
sS'or'
p7147
I170
sS'exept'
p7148
I1
sS'ladies'
p7149
I1
sS'garner'
p7150
I1
sS'Arkansas'
p7151
I1
sS'determine'
p7152
I1
sS'gary'
p7153
I1
sS'burton'
p7154
I1
sS'ommited'
p7155
I1
sS'Beatles'
p7156
I6
sS'strictly'
p7157
I2
sS'there'
p7158
I89
sS'racism'
p7159
I2
sS'racist'
p7160
I5
sS'fish'
p7161
I2
sS'Remember'
p7162
I1
sS'Bette'
p7163
I1
sS'Lifelong'
p7164
I1
sS'Nuff'
p7165
I1
sS'promote'
p7166
I2
sS'longer'
p7167
I6
sS'f-word'
p7168
I2
sS'Whoopi'
p7169
I1
sS'FBI'
p7170
I2
sS'dsiappointment'
p7171
I1
sS'Lancaster'
p7172
I1
sS'toilet'
p7173
I1
sS'cinema'
p7174
I7
sS'taste'
p7175
I5
sS'frighten'
p7176
I1
sS'crude-fest'
p7177
I1
sS'intro'
p7178
I1
sS'FUNNY'
p7179
I2
sS'Mottola'
p7180
I1
sS'politics'
p7181
I6
sS'stumbled'
p7182
I1
sS'Kristinand'
p7183
I1
sS'rubbed'
p7184
I1
sS'idiot'
p7185
I5
sS'deserve'
p7186
I3
sS'SGT'
p7187
I1
sS'rubber'
p7188
I1
sS'5'
p7189
I20
sS'trash'
p7190
I28
sS'Naval'
p7191
I2
sS'Boring'
p7192
I9
sS'includes'
p7193
I1
sS'bullets'
p7194
I2
sS'STARS'
p7195
I1
sS'brass'
p7196
I1
sS'Honeyman-Pinhead'
p7197
I1
sS'wife'
p7198
I10
sS'invest'
p7199
I1
sS'odds'
p7200
I1
sS'Blah'
p7201
I5
sS'directors'
p7202
I4
sS'songs'
p7203
I6
sS'Ravolta'
p7204
I1
sS'Bulimia'
p7205
I1
sS'talentless'
p7206
I1
sS'horrible'
p7207
I58
sS'all'
p7208
I235
sS'diss'
p7209
I1
sS'ali'
p7210
I1
sS'lack'
p7211
I8
sS'ala'
p7212
I1
sS'surgical'
p7213
I1
sS'Parents'
p7214
I1
sS'follow'
p7215
I8
sS'settlement'
p7216
I1
sS'glimpse'
p7217
I1
sS'apartment'
p7218
I1
sS'subjected'
p7219
I1
sS'regulars'
p7220
I1
sS'acting'
p7221
I71
sS'opportunities'
p7222
I1
sS'coke-bottle'
p7223
I1
sS'blood-soaked'
p7224
I1
sS'Christians'
p7225
I1
sS'irishgit'
p7226
I1
sS'woman'
p7227
I22
sS'worse'
p7228
I33
sS'Seuss'
p7229
I1
sS'song'
p7230
I7
sS'far'
p7231
I16
sS'fat'
p7232
I5
sS'brainlessness'
p7233
I1
sS'fan'
p7234
I21
sS'awful'
p7235
I46
sS'ticket'
p7236
I4
sS'treating'
p7237
I1
sS'sentimental'
p7238
I1
sS'list'
p7239
I10
sS'Rest'
p7240
I1
sS'competely'
p7241
I1
sS'liars'
p7242
I1
sS'Psycho'
p7243
I1
sS'conflicted'
p7244
I1
sS'Chase'
p7245
I1
sS'flick'
p7246
I23
sS'ten'
p7247
I10
sS'tea'
p7248
I1
sS'built-in'
p7249
I1
sS'rate'
p7250
I10
sS'bopper'
p7251
I3
sS'East'
p7252
I2
sS'Ridiculously'
p7253
I1
sS'what'
p7254
I132
sS'hesitation'
p7255
I1
sS'sub'
p7256
I1
sS'sun'
p7257
I1
sS'sum'
p7258
I2
sS'brief'
p7259
I1
sS'version'
p7260
I23
sS'attitudes'
p7261
I3
sS'entwine'
p7262
I1
sS'guns'
p7263
I1
sS'sux'
p7264
I1
sS'christian'
p7265
I2
sS'hungover'
p7266
I1
sS'supposedly'
p7267
I2
sS'behaviour'
p7268
I1
sS'shouldn'
p7269
I6
sS'BABY'
p7270
I1
sS'DESTROY'
p7271
I1
sS'epitome'
p7272
I2
sS'Pulp'
p7273
I2
sS'Absolutely'
p7274
I3
sS'REALLLY'
p7275
I1
sS'Forrest'
p7276
I1
sS'camcorder'
p7277
I2
sS'sticking'
p7278
I1
sS'Toy'
p7279
I2
sS'thankfully'
p7280
I2
sS'suddenly'
p7281
I2
sS'Things'
p7282
I1
sS'Top'
p7283
I2
sS'Whistle'
p7284
I1
sS'screens'
p7285
I1
sS'Butt-Head'
p7286
I1
sS'Too'
p7287
I6
sS'Tom'
p7288
I17
sS'1900'
p7289
I1
sS'jurors'
p7290
I1
sS'Camus'
p7291
I1
sS'Liasons'
p7292
I1
sS'Overall'
p7293
I1
sS'Beatty'
p7294
I1
sS'pervaded'
p7295
I1
sS'minor'
p7296
I3
sS'flat'
p7297
I7
sS'wretched'
p7298
I4
sS'knows'
p7299
I7
sS're-titled'
p7300
I1
sS'grabbing'
p7301
I1
sS'Framers'
p7302
I1
sS'waxed'
p7303
I2
sS'flag'
p7304
I2
sS'NONhonor'
p7305
I1
sS'basically'
p7306
I6
sS'known'
p7307
I4
sS'mellow'
p7308
I1
sS'glad'
p7309
I10
sS'caveat'
p7310
I1
sS'prophet'
p7311
I1
sS'gothic'
p7312
I2
sS'Tomorrow'
p7313
I1
sS'Phantom'
p7314
I1
sS'Different'
p7315
I1
sS'atrocious'
p7316
I4
sS'protects'
p7317
I1
sS'imitation'
p7318
I1
sS'Coleman'
p7319
I1
sS'premiscious'
p7320
I1
sS'goal'
p7321
I1
sS'rather'
p7322
I27
sS'breaking'
p7323
I3
sS'occasionally'
p7324
I1
sS'explains'
p7325
I4
sS'shouldnt'
p7326
I2
sS'okay'
p7327
I5
sS'Epps'
p7328
I1
sS'catalog'
p7329
I1
sS'adventure'
p7330
I1
sS'numb'
p7331
I3
sS'FAKE'
p7332
I1
sS'capitalize'
p7333
I1
sS'Liked'
p7334
I1
sS'Everyone'
p7335
I5
sS'Creepers'
p7336
I1
sS'prefers'
p7337
I1
sS'strutting'
p7338
I1
sS'blasphemous'
p7339
I1
sS'Sean'
p7340
I4
sS'teenage-wannabe'
p7341
I1
sS'essence'
p7342
I1
sS'disabled'
p7343
I1
sS'isnt'
p7344
I3
sS'scientist'
p7345
I1
sS'trouble'
p7346
I4
sS'style'
p7347
I6
sS'Full'
p7348
I1
sS'pray'
p7349
I1
sS'Bean'
p7350
I1
sS'Documentaries'
p7351
I1
sS'resort'
p7352
I1
sS'dross'
p7353
I1
sS'parts'
p7354
I20
sS'bout'
p7355
I1
sS'TOTAL'
p7356
I1
sS'might'
p7357
I18
sS'writters'
p7358
I1
sS'wouldn'
p7359
I15
sS'return'
p7360
I3
sS'L'
p7361
I8
sS'woulda'
p7362
I1
sS'number'
p7363
I4
sS'units'
p7364
I2
sS'Erf'
p7365
I1
sS'hunted'
p7366
I2
sS'bigger'
p7367
I2
sS'braindead'
p7368
I1
sS'unintersting'
p7369
I1
sS'Bergan'
p7370
I1
sS'mastered'
p7371
I1
sS'Scottish'
p7372
I1
sS'Sucked'
p7373
I2
sS'Ray'
p7374
I2
sS'PLANNER'
p7375
I1
sS'weight'
p7376
I2
sS'generation'
p7377
I2
sS'modernized'
p7378
I1
sS'Joseph'
p7379
I2
sS'expect'
p7380
I11
sS'inflated'
p7381
I2
sS'More'
p7382
I4
sS'prolly'
p7383
I1
sS'alcohol'
p7384
I2
sS'wondered'
p7385
I1
sS'Tigers'
p7386
I1
sS'Samuel'
p7387
I4
sS'adhere'
p7388
I1
sS'hill'
p7389
I1
sS'fiber'
p7390
I1
sS'monotone'
p7391
I1
sS'Seldom'
p7392
I1
sS'friday'
p7393
I1
sS'Doolittle'
p7394
I1
sS'BOMBS'
p7395
I1
sS'teach'
p7396
I1
sS'Male'
p7397
I1
sS'thrown'
p7398
I4
sS'beast'
p7399
I1
sS'People'
p7400
I6
sS'Expect'
p7401
I1
sS'threat'
p7402
I1
sS'twenty'
p7403
I3
sS'Bratt'
p7404
I1
sS'fallen'
p7405
I1
sS'feel'
p7406
I23
sS'radical'
p7407
I1
sS'churning'
p7408
I1
sS'linking'
p7409
I1
sS'Indian'
p7410
I1
sS'bland'
p7411
I5
sS'harbours'
p7412
I1
sS'passes'
p7413
I1
sS'story'
p7414
I78
sS'"'
p7415
I3
sS'script'
p7416
I23
sS'REASONS'
p7417
I1
sS'interviews'
p7418
I1
sS'hangs'
p7419
I1
sS'Making'
p7420
I1
sS'BITCH'
p7421
I1
sS'storm'
p7422
I4
sS'frequently-used'
p7423
I1
sS'store'
p7424
I2
sS'headache'
p7425
I5
sS'watcher'
p7426
I1
sS'smile-worthy'
p7427
I1
sS'Dangerous'
p7428
I1
sS'filmic'
p7429
I1
sS'luckily'
p7430
I1
sS'"When'
p7431
I1
sS'uncut'
p7432
I1
sS'king'
p7433
I4
sS'kind'
p7434
I23
sS'simplist'
p7435
I1
sS'nagging'
p7436
I1
sS'double'
p7437
I1
sS'outrageous'
p7438
I2
sS'architect'
p7439
I1
sS'insulted'
p7440
I6
sS'stale'
p7441
I3
sS'unrelenting'
p7442
I1
sS'Oliver'
p7443
I1
sS'outstanding'
p7444
I1
sS'shrewd'
p7445
I1
sS'alike'
p7446
I1
sS'DAMNIT'
p7447
I1
sS'Justin'
p7448
I1
sS'Predator'
p7449
I2
sS'entirety'
p7450
I1
sS'Germany'
p7451
I1
sS'finding'
p7452
I1
sS'buff'
p7453
I2
sS'added'
p7454
I1
sS'"Scream"'
p7455
I1
sS'reach'
p7456
I2
sS'Unnecessary'
p7457
I1
sS'77'
p7458
I1
sS'75'
p7459
I1
sS'70'
p7460
I3
sS'nothing'
p7461
I40
sS'defensible'
p7462
I1
sS'measured'
p7463
I2
sS'screenwriter'
p7464
I1
sS'achievement'
p7465
I1
sS'dealers'
p7466
I1
sS'windows'
p7467
I1
sS'devalue'
p7468
I1
sS'Bruce'
p7469
I1
sS'scantily'
p7470
I1
sS'Speed'
p7471
I2
sS'Juliet'
p7472
I1
sS'stones'
p7473
I1
sS'Pharisees'
p7474
I1
sS'Ebert'
p7475
I1
sS'stoned'
p7476
I2
sS'cameo'
p7477
I2
sS'uniform'
p7478
I3
sS'delinquent'
p7479
I1
sS'rampant'
p7480
I1
sS'grotesque'
p7481
I1
sS'Jr'
p7482
I2
sS'grace'
p7483
I5
sS'airtime'
p7484
I1
sS'charcters'
p7485
I1
sS'his'
p7486
I106
sS'OFF'
p7487
I2
sS'invoke'
p7488
I1
sS'goody-goody'
p7489
I1
sS'UNNECESSARY'
p7490
I1
sS'longest'
p7491
I1
sS'him'
p7492
I49
sS'THIS'
p7493
I12
sS'moviegoers'
p7494
I1
sS'mistakes'
p7495
I1
sS'activity'
p7496
I1
sS'cringe'
p7497
I1
sS'relentless'
p7498
I1
sS'wrote'
p7499
I5
sS'consciously'
p7500
I1
sS'bars'
p7501
I1
sS'art'
p7502
I3
sS'gawd'
p7503
I1
sS'intelligence'
p7504
I11
sS'advertised'
p7505
I1
sS'catchprase-originating'
p7506
I1
sS'choreographed'
p7507
I1
sS'defense'
p7508
I1
sS'dumb'
p7509
I21
sS'are'
p7510
I212
sS'barf'
p7511
I1
sS'cleverly'
p7512
I1
sS'arn'
p7513
I1
sS'Third-rate'
p7514
I1
sS'youth'
p7515
I3
sS'nailed'
p7516
I2
sS'slapped'
p7517
I1
sS'various'
p7518
I3
sS'consecutive'
p7519
I1
sS'numerous'
p7520
I2
sS'berserk'
p7521
I1
sS'drowned-out'
p7522
I1
sS'recently'
p7523
I1
sS'Streisand'
p7524
I1
sS'Could'
p7525
I4
sS'sole'
p7526
I1
sS'NASCAR'
p7527
I3
sS'outfit'
p7528
I1
sS'African'
p7529
I1
sS'competent'
p7530
I1
sS'prelude'
p7531
I1
sS'AND'
p7532
I7
sS'c'
p7533
I3
sS'Helsing'
p7534
I2
sS'bludgeoned'
p7535
I1
sS'riddled'
p7536
I2
sS'became'
p7537
I6
sS'fraternity'
p7538
I1
sS'ANY'
p7539
I3
sS'Superman'
p7540
I2
sS'Re-enactors'
p7541
I1
sS'knee-deep'
p7542
I1
sS'Snoop'
p7543
I6
sS'reasons'
p7544
I5
sS'sweet'
p7545
I7
sS'dudes'
p7546
I1
sS'Fat'
p7547
I1
sS'Pa-thet-ic'
p7548
I1
sS'goats'
p7549
I1
sS'duh'
p7550
I2
sS'Play'
p7551
I2
sS'dum'
p7552
I1
sS'duo'
p7553
I1
sS'humorous'
p7554
I1
sS'overlook'
p7555
I1
sS'dud'
p7556
I1
sS'due'
p7557
I3
sS'Yawn'
p7558
I1
sS'Rogue'
p7559
I1
sS'Uninspired'
p7560
I1
sS'whoa'
p7561
I1
sS'woke'
p7562
I1
sS'flight'
p7563
I1
sS'buck'
p7564
I3
sS'DUMBEST'
p7565
I1
sS'precision'
p7566
I1
sS'1864'
p7567
I1
sS'demand'
p7568
I2
sS'overrunning'
p7569
I1
sS'DeNiro'
p7570
I3
sS'Wolves'
p7571
I1
sS'MISTAKE'
p7572
I1
sS'frozen'
p7573
I1
sS'parachutes'
p7574
I1
sS'behavior'
p7575
I2
sS'NASTY'
p7576
I1
sS'SAVED'
p7577
I1
sS'Dreadful'
p7578
I3
sS'Italy'
p7579
I2
sS'credence'
p7580
I1
sS'trumped-up'
p7581
I1
sS'uninspired'
p7582
I4
sS'demon'
p7583
I1
sS'rip'
p7584
I8
sS'disappointing'
p7585
I9
sS'ecstasy'
p7586
I1
sS'-The'
p7587
I3
sS'obstacle'
p7588
I1
sS'impersonate'
p7589
I1
sS'rid'
p7590
I2
sS'apopear'
p7591
I1
sS'Nation'
p7592
I2
sS'peoples'
p7593
I1
sS'esteemed'
p7594
I1
sS'advise'
p7595
I1
sS'daughters'
p7596
I2
sS'higher'
p7597
I3
sS'Fool'
p7598
I1
sS'About'
p7599
I5
sS'GOOD'
p7600
I2
sS'moving'
p7601
I5
sS'YOU'
p7602
I9
sS'lower'
p7603
I2
sS'Almost'
p7604
I2
sS'Miller'
p7605
I1
sS'anybody'
p7606
I2
sS'cheep'
p7607
I2
sS'cheer'
p7608
I1
sS'edge'
p7609
I2
sS'reflect'
p7610
I1
sS'Examples'
p7611
I1
sS'inspirational'
p7612
I1
sS'YOu'
p7613
I1
sS'know'
p7614
I63
sS'abilities'
p7615
I2
sS'Takes'
p7616
I1
sS'DARK'
p7617
I1
sS'Wonderful'
p7618
I1
sS'HAVE'
p7619
I2
sS'Nope'
p7620
I4
sS'ORDER'
p7621
I1
sS'gems'
p7622
I1
sS'morals'
p7623
I1
sS'likeable'
p7624
I1
sS'exclusively'
p7625
I2
sS'inducing'
p7626
I1
sS'Last'
p7627
I2
sS'complains'
p7628
I1
sS'Thou'
p7629
I1
sS'joyless'
p7630
I1
sS'seanbryson'
p7631
I1
sS'lovin'
p7632
I1
sS'Definitely'
p7633
I3
sS'Again'
p7634
I1
sS'Yemen'
p7635
I1
sS'admittedly'
p7636
I2
sS'message'
p7637
I11
sS'hahahahahaahahaahah'
p7638
I1
sS'ignore'
p7639
I1
sS'unstable'
p7640
I1
sS'coorperation'
p7641
I1
sS'essential'
p7642
I1
sS'ABOUT'
p7643
I1
sS'Lemon'
p7644
I1
sS'traits'
p7645
I2
sS'clown'
p7646
I1
sS'immaute'
p7647
I1
sS'EMPTY'
p7648
I1
sS'2102723'
p7649
I1
sS'nauseating'
p7650
I3
sS'Fire'
p7651
I1
sS'Devito'
p7652
I1
sS'tends'
p7653
I2
sS'prob'
p7654
I1
sS'apathetic'
p7655
I1
sS'jumpy'
p7656
I1
sS'jumps'
p7657
I1
sS'Times'
p7658
I2
sS'intense'
p7659
I1
sS'hogwash'
p7660
I2
sS'Singleton'
p7661
I1
sS'Square'
p7662
I1
sS'Ron'
p7663
I1
sS'Rob'
p7664
I7
sS'virus'
p7665
I2
sS'Personaly'
p7666
I1
sS'lifeless'
p7667
I1
sS'dialog'
p7668
I5
sS'hatred'
p7669
I1
sS'wanna'
p7670
I4
sS'gaves'
p7671
I1
sS'hollywood-ised'
p7672
I1
sS'NO'
p7673
I6
sS'canal'
p7674
I1
sS'impressed'
p7675
I4
sS'Caddyshack'
p7676
I2
sS'question'
p7677
I4
sS'fast'
p7678
I5
sS'Every'
p7679
I7
sS'Nolte'
p7680
I1
sS'EARTH'
p7681
I1
sS'zepplin'
p7682
I1
sS'embarasses'
p7683
I1
sS'YU-GI-OH'
p7684
I1
sS'crank'
p7685
I1
sS'Ashton'
p7686
I2
sS'Mason'
p7687
I1
sS'Austin'
p7688
I4
sS'Cruise'
p7689
I12
sS'highlight'
p7690
I2
sS'called'
p7691
I15
sS'Hubbard'
p7692
I1
sS'associated'
p7693
I4
sS'worthwhile'
p7694
I1
sS'Blasphemous'
p7695
I1
sS'Binoche'
p7696
I1
sS'Hewitt'
p7697
I3
sS'disappoints'
p7698
I2
sS'riiiight'
p7699
I1
sS'peace'
p7700
I2
sS'Ignorance'
p7701
I1
sS'disappointd'
p7702
I1
sS'Personally'
p7703
I2
sS'shallower'
p7704
I1
sS'nice'
p7705
I5
sS'develope'
p7706
I1
sS'understatement'
p7707
I1
sS'problems'
p7708
I3
sS'breasts'
p7709
I2
sS'helping'
p7710
I1
sS'meaning'
p7711
I6
sS'peepers'
p7712
I1
sS'Skunk'
p7713
I1
sS'happier'
p7714
I1
sS'Biblical'
p7715
I1
sS'vice'
p7716
I2
sS'Espa'
p7717
I1
sS'Dragonball'
p7718
I1
sS'ACTORS'
p7719
I1
sS'narrative'
p7720
I2
sS'Turner'
p7721
I2
sS'buffalo'
p7722
I1
sS'once'
p7723
I29
sS'pervert'
p7724
I2
sS'Based'
p7725
I1
sS'alien'
p7726
I4
sS'gang'
p7727
I1
sS'Grier'
p7728
I2
sS'MANY'
p7729
I1
sS'include'
p7730
I1
sS'confirmation'
p7731
I1
sS'wished'
p7732
I3
sS'mainstream'
p7733
I1
sS'un-scary'
p7734
I2
sS'P'
p7735
I1
sS'spook'
p7736
I1
sS'spoof'
p7737
I2
sS'decked'
p7738
I3
sS'co-stars'
p7739
I1
sS'concluded'
p7740
I1
sS'trollops'
p7741
I1
sS'ripped'
p7742
I7
sS'traveling'
p7743
I1
sS'reunion'
p7744
I1
sS'ummm'
p7745
I1
sS'manipulating'
p7746
I1
sS'Maryland'
p7747
I3
sS'acid'
p7748
I1
sS'makers'
p7749
I8
sS'medieval'
p7750
I2
sS'goly'
p7751
I1
sS'showcase'
p7752
I1
sS'pasturized'
p7753
I1
sS'washed-up'
p7754
I1
sS'waiting'
p7755
I9
sS'nazis'
p7756
I1
sS'impact'
p7757
I1
sS'self-exploitation'
p7758
I1
sS'chose'
p7759
I4
sS'desires'
p7760
I1
sS'bulimia'
p7761
I1
sS'pushing'
p7762
I2
sS'Obviously'
p7763
I3
sS'Southerner'
p7764
I1
sS'tarred'
p7765
I1
sS'sexy'
p7766
I1
sS'larger'
p7767
I1
sS'leaving'
p7768
I3
sS'Robert'
p7769
I6
sS'shoved'
p7770
I1
sS'invisble'
p7771
I1
sS'offends'
p7772
I2
sS'apply'
p7773
I1
sS'Sellers'
p7774
I2
sS'ape'
p7775
I2
sS'use'
p7776
I17
sS'from'
p7777
I140
sS'&'
p7778
I15
sS'Huh'
p7779
I3
sS'frog'
p7780
I1
sS'bluriness'
p7781
I1
sS'modicum'
p7782
I1
sS'depicted'
p7783
I2
sS'SSSSTTTUUUPPPIIIDDD'
p7784
I1
sS'scariest'
p7785
I1
sS'convoluted'
p7786
I2
sS'sort'
p7787
I13
sS'clever'
p7788
I3
sS'Confederate'
p7789
I1
sS'Gun'
p7790
I1
sS'Gus'
p7791
I1
sS'sore'
p7792
I1
sS'penis'
p7793
I1
sS'Guy'
p7794
I1
sS'women'
p7795
I11
sS'ALL'
p7796
I2
sS'stroke'
p7797
I1
sS'anywhere'
p7798
I3
sS'Voight'
p7799
I2
sS'aweful'
p7800
I1
sS'proof'
p7801
I2
sS'thirsty'
p7802
I1
sS'matinee'
p7803
I2
sS'villain'
p7804
I3
sS'something'
p7805
I49
sS'serial'
p7806
I1
sS'Hackman'
p7807
I2
sS'HUGE'
p7808
I2
sS'Russia'
p7809
I1
sS'syndrome'
p7810
I1
sS'sit'
p7811
I12
sS'cliches'
p7812
I4
sS'six'
p7813
I2
sS'struggles'
p7814
I1
sS'sic'
p7815
I1
sS'cutesie'
p7816
I1
sS'instead'
p7817
I26
sS'panic'
p7818
I1
sS'sin'
p7819
I2
sS'cliched'
p7820
I1
sS'tension'
p7821
I2
sS'puppets'
p7822
I1
sS'Noble'
p7823
I1
sS'faukers'
p7824
I1
sS'gurrila'
p7825
I1
sS'BANG'
p7826
I1
sS'abuse'
p7827
I1
sS'Hence'
p7828
I1
sS'light'
p7829
I3
sS'Bonham-Carter'
p7830
I1
sS'civics'
p7831
I1
sS'honestly'
p7832
I9
sS'Lestat'
p7833
I2
sS'reptile'
p7834
I1
sS'looks'
p7835
I20
sS'superior'
p7836
I3
sS'voiceless'
p7837
I1
sS'ships'
p7838
I1
sS'economy'
p7839
I1
sS'contemplative'
p7840
I1
sS'choose'
p7841
I2
sS'orange'
p7842
I1
sS'covered'
p7843
I2
sS'crowds'
p7844
I1
sS'Ashley'
p7845
I1
sS'"Tender'
p7846
I1
sS'Car'
p7847
I1
sS'material'
p7848
I4
sS'Cat'
p7849
I4
sS'Can'
p7850
I5
sS'republican'
p7851
I2
sS'Pro-Castro'
p7852
I1
sS'crass'
p7853
I1
sS'Summer'
p7854
I1
sS'brawls'
p7855
I1
sS'Accurate'
p7856
I1
sS'transmitted'
p7857
I1
sS'Lambs'
p7858
I1
sS'broing'
p7859
I1
sS'whis'
p7860
I1
sS'studios'
p7861
I1
sS'disregarding'
p7862
I1
sS'related'
p7863
I2
sS'Next'
p7864
I6
sS'Wendy'
p7865
I1
sS'our'
p7866
I22
sS'80'
p7867
I4
sS'HATE'
p7868
I2
sS'out'
p7869
I178
sS'category'
p7870
I4
sS'schmucks'
p7871
I1
sS'performs'
p7872
I1
sS'Baby'
p7873
I3
sS'disapointed'
p7874
I2
sS'Cartoon'
p7875
I1
sS'This'
p7876
I266
sS'WOW'
p7877
I2
sS'Stupid'
p7878
I12
sS'Gone'
p7879
I1
sS'g'
p7880
I1
sS'latest'
p7881
I1
sS'conversation'
p7882
I1
sS'Hyde'
p7883
I1
sS'hence'
p7884
I1
sS'insane'
p7885
I2
sS'simultanious'
p7886
I1
sS'K2'
p7887
I1
sS'unknown'
p7888
I2
sS'Ryder'
p7889
I1
sS'accent'
p7890
I3
sS'Rankin'
p7891
I1
sS'potty'
p7892
I1
sS'anaemic'
p7893
I1
sS'STILL'
p7894
I4
sS'misunderstood'
p7895
I1
sS'shell'
p7896
I1
sS'academy'
p7897
I2
sS'doomed'
p7898
I2
sS'shallow'
p7899
I8
sS'preposterous'
p7900
I2
sS'branches'
p7901
I1
sS'Intolerable'
p7902
I1
sS'institution'
p7903
I1
sS'Obi-Wan'
p7904
I1
sS'Maxine'
p7905
I1
sS'hearings'
p7906
I1
sS'objectionable'
p7907
I5
sS'boring'
p7908
I100
sS'screeching'
p7909
I1
sS'Peter'
p7910
I6
sS'clevage'
p7911
I1
sS'violets'
p7912
I1
sS'teenagers'
p7913
I7
sS'disjoint'
p7914
I1
sS'movie-with'
p7915
I1
sS'angle'
p7916
I3
sS'After'
p7917
I20
sS'which'
p7918
I66
sS'Science'
p7919
I1
sS'trivia'
p7920
I1
sS'='
p7921
I3
sS'who'
p7922
I140
sS'Titanic'
p7923
I2
sS'disater'
p7924
I1
sS'why'
p7925
I51
sS'lamer'
p7926
I1
sS'Gratuitous'
p7927
I1
sS'GET'
p7928
I1
sS'Actress'
p7929
I1
sS'High'
p7930
I1
sS'Poo'
p7931
I1
sS'Retched'
p7932
I1
sS'Earth'
p7933
I5
sS'Robbie'
p7934
I1
sS'inane'
p7935
I4
sS'Everybody'
p7936
I3
sS'Carlyle'
p7937
I2
sS'Suspence'
p7938
I1
sS'word-'
p7939
I1
sS'agreed'
p7940
I4
sS'artfully'
p7941
I1
sS'repetative'
p7942
I1
sS'utter'
p7943
I5
sS'fear'
p7944
I4
sS'pleased'
p7945
I1
sS'Shut'
p7946
I2
sS'filmed'
p7947
I5
sS'local'
p7948
I7
sS'Legend'
p7949
I1
sS'spun'
p7950
I1
sS'sued'
p7951
I1
sS'watching'
p7952
I47
sS'massacre'
p7953
I2
sS'regretfulness'
p7954
I1
sS'ones'
p7955
I7
sS'words'
p7956
I9
sS'THE'
p7957
I15
sS'ended'
p7958
I12
sS'Maury'
p7959
I2
sS'NSNA'
p7960
I1
sS'married'
p7961
I1
sS'Seinfeld'
p7962
I1
sS'leviathan'
p7963
I1
sS'juror'
p7964
I1
sS'cleavage'
p7965
I1
sS'futuristic'
p7966
I1
sS'deceived'
p7967
I1
sS'requirement'
p7968
I1
sS'inventive'
p7969
I1
sS'artsy'
p7970
I1
sS'Hirsch'
p7971
I1
sS'story-writer'
p7972
I1
sS'cold'
p7973
I1
sS'closer'
p7974
I1
sS'Hitcher'
p7975
I1
sS'teapots'
p7976
I1
sS'Godzilla'
p7977
I1
sS'Crappy'
p7978
I2
sS'favor'
p7979
I3
sS'crude'
p7980
I9
sS'stupid-make-gross-jokes-in-a-futile-attempt-to-be-funny'
p7981
I1
sS'bought'
p7982
I3
sS'Viviane'
p7983
I1
sS'masochistic'
p7984
I1
sS'ability'
p7985
I2
sS'opening'
p7986
I4
sS'joy'
p7987
I1
sS'rescuers'
p7988
I1
sS'Minnie'
p7989
I1
sS'embarrassment'
p7990
I4
sS'job'
p7991
I13
sS'spoil'
p7992
I1
sS'excrutiating'
p7993
I1
sS'underscoring'
p7994
I1
sS'legendary'
p7995
I2
sS'profanity'
p7996
I16
sS'waisted'
p7997
I3
sS'Rate-Its'
p7998
I1
sS'atleast'
p7999
I2
sS'unconvincing'
p8000
I2
sS'THEN'
p8001
I2
sS'unclear'
p8002
I2
sS'wall'
p8003
I2
sS'DVD'
p8004
I9
sS'Lili'
p8005
I1
sS'hundered'
p8006
I1
sS'walk'
p8007
I9
sS'Finally'
p8008
I4
sS'THEY'
p8009
I1
sS'sequences'
p8010
I5
sS'respect'
p8011
I9
sS'inflicted'
p8012
I1
sS'Mekhi'
p8013
I1
sS'occured'
p8014
I1
sS'8-year'
p8015
I1
sS'Fheit'
p8016
I1
sS'potheads'
p8017
I1
sS'marilyn'
p8018
I1
sS'Jus'
p8019
I1
sS'literal'
p8020
I1
sS'Sandra'
p8021
I1
sS'Loons'
p8022
I1
sS'Toronto'
p8023
I1
sS'mike'
p8024
I2
sS'skinhead'
p8025
I1
sS'painted'
p8026
I1
sS'jaded'
p8027
I1
sS'crappy'
p8028
I7
sS'saner'
p8029
I1
sS'Jason'
p8030
I13
sS'present'
p8031
I8
sS'Force'
p8032
I1
sS'abandoned'
p8033
I1
sS'unlike'
p8034
I2
sS'Halloween'
p8035
I4
sS'choices'
p8036
I2
sS'will'
p8037
I65
sS'stunning'
p8038
I1
sS'Jaws'
p8039
I2
sS'wild'
p8040
I1
sS're-aired'
p8041
I1
sS'mutant'
p8042
I1
sS'apprehend'
p8043
I1
sS'drips'
p8044
I1
sS'audiences'
p8045
I5
sS'snuck'
p8046
I2
sS'Hope'
p8047
I1
sS'Loving'
p8048
I1
sS'perhaps'
p8049
I6
sS'radiation'
p8050
I1
sS'cross'
p8051
I1
sS'member'
p8052
I2
sS'largest'
p8053
I1
sS'panning'
p8054
I1
sS'fantasized'
p8055
I1
sS'gets'
p8056
I26
sS'difficult'
p8057
I5
sS'slave'
p8058
I5
sS'Third'
p8059
I1
sS'premiere'
p8060
I1
sS'definately'
p8061
I2
sS'MTV'
p8062
I3
sS'Reid'
p8063
I1
sS'ly'
p8064
I2
sS'student'
p8065
I1
sS'whale'
p8066
I1
sS'Dawson'
p8067
I1
sS'warming'
p8068
I1
sS'Houston'
p8069
I1
sS'Adults'
p8070
I1
sS'contest'
p8071
I1
sS'fighting'
p8072
I4
sS'States'
p8073
I1
sS'ARE'
p8074
I2
sS'english'
p8075
I1
sS'firstly'
p8076
I1
sS'un-funny'
p8077
I1
sS'excessive'
p8078
I2
sS'cried'
p8079
I3
sS'GEEZ'
p8080
I1
sS'cries'
p8081
I1
sS'batteries'
p8082
I1
sS'fishing'
p8083
I2
sS'Nicholas'
p8084
I2
sS'toilets'
p8085
I1
sS'Matt'
p8086
I1
sS'lord--why'
p8087
I1
sS'guts'
p8088
I1
sS'smith'
p8089
I2
sS'capabilities'
p8090
I1
sS'other'
p8091
I55
sS'Fan'
p8092
I1
sS'attractive'
p8093
I5
sS'oscar-worthy'
p8094
I1
sS'identical'
p8095
I1
sS'gentler-kinder'
p8096
I1
sS'angst-ridden'
p8097
I2
sS'meteor'
p8098
I1
sS'term'
p8099
I1
sS'Drug'
p8100
I1
sS'T'
p8101
I13
sS'facial'
p8102
I1
sS'glipst'
p8103
I1
sS'Burkettsville'
p8104
I2
sS'helpful'
p8105
I1
sS'DOUBLE'
p8106
I2
sS'Within'
p8107
I1
sS'mother-in-law'
p8108
I1
sS'loser'
p8109
I4
sS'loses'
p8110
I3
sS'starred'
p8111
I4
sS'conclusion'
p8112
I6
sS'because'
p8113
I101
sS'sequence'
p8114
I3
sS'scared'
p8115
I10
sS'searching'
p8116
I1
sS'115'
p8117
I1
sS'racking'
p8118
I1
sS'Jonathan'
p8119
I1
sS'scares'
p8120
I2
sS'ravaged'
p8121
I1
sS'fraggle'
p8122
I1
sS'lead'
p8123
I8
sS'Disney'
p8124
I10
sS'leader'
p8125
I1
sS'rip-off'
p8126
I4
sS'poets'
p8127
I1
sS'murderer'
p8128
I1
sS'acronym'
p8129
I1
sS'handedly'
p8130
I1
sS'slut'
p8131
I2
sS'murdered'
p8132
I1
sS'conveyed'
p8133
I1
sS'asinine'
p8134
I1
sS'frustrate'
p8135
I1
sS'Maul'
p8136
I1
sS'rare'
p8137
I2
sS'carried'
p8138
I2
sS'extension'
p8139
I1
sS'getting'
p8140
I17
sS'universe'
p8141
I1
sS'Stigmata'
p8142
I1
sS'swear'
p8143
I5
sS'Americans'
p8144
I4
sS'Buick'
p8145
I1
sS'urges'
p8146
I1
sS'heroics'
p8147
I2
sS'RENNY'
p8148
I1
sS'Really'
p8149
I9
sS'own'
p8150
I19
sS'Outer'
p8151
I2
sS'earthly'
p8152
I1
sS'Robbins'
p8153
I2
sS'MODERN'
p8154
I1
sS'Stockard'
p8155
I1
sS'promise'
p8156
I2
sS'sucicides'
p8157
I1
sS'electrocutions'
p8158
I1
sS'brilliantly'
p8159
I1
sS'Mcdormand'
p8160
I1
sS'Grease'
p8161
I2
sS'Dusk'
p8162
I1
sS'Bale'
p8163
I1
sS'*'
p8164
I75
sS'kidding'
p8165
I11
sS'intention'
p8166
I1
sS'cliff'
p8167
I1
sS'Davison'
p8168
I1
sS'DiCapprio'
p8169
I1
sS'Dude'
p8170
I1
sS'bitches'
p8171
I1
sS'Except'
p8172
I1
sS'contradictory'
p8173
I1
sS'Witches'
p8174
I1
sS'Fantasia'
p8175
I1
sS'made'
p8176
I106
sS'tactics'
p8177
I1
sS'whether'
p8178
I5
sS'Ted'
p8179
I3
sS'record'
p8180
I5
sS'below'
p8181
I3
sS'pleassurefull'
p8182
I1
sS'horrific'
p8183
I2
sS'received'
p8184
I1
sS'meaningless'
p8185
I2
sS'---'
p8186
I1
sS'lobotomy'
p8187
I1
sS'CUNNINGHAM'
p8188
I1
sS'incredible'
p8189
I2
sS'Doo'
p8190
I1
sS'Quentin'
p8191
I2
sS'Mario'
p8192
I1
sS'book'
p8193
I37
sS'boom'
p8194
I1
sS'sick'
p8195
I24
sS'boob'
p8196
I1
sS'incredibly'
p8197
I11
sS'Dustin'
p8198
I1
sS'junk'
p8199
I10
sS'SPACE'
p8200
I1
sS'putrid'
p8201
I1
sS'Craven'
p8202
I1
sS'PLAN'
p8203
I1
sS'kinda'
p8204
I2
sS'Weaver'
p8205
I2
sS'upwards'
p8206
I1
sS'Sith'
p8207
I1
sS'Garbage'
p8208
I1
sS'ranks'
p8209
I1
sS'sci-'
p8210
I1
s.